
lab10.elf:     file format elf32-avr

Sections:
Idx Name          Size      VMA       LMA       File off  Algn
  0 .data         00000104  00800100  00001f38  00001fcc  2**0
                  CONTENTS, ALLOC, LOAD, DATA
  1 .text         00001f38  00000000  00000000  00000094  2**1
                  CONTENTS, ALLOC, LOAD, READONLY, CODE
  2 .bss          00000070  00800204  00800204  000020d0  2**0
                  ALLOC
  3 .comment      00000030  00000000  00000000  000020d0  2**0
                  CONTENTS, READONLY
  4 .note.gnu.avr.deviceinfo 00000040  00000000  00000000  00002100  2**2
                  CONTENTS, READONLY
  5 .debug_aranges 000001a0  00000000  00000000  00002140  2**3
                  CONTENTS, READONLY, DEBUGGING
  6 .debug_info   00002720  00000000  00000000  000022e0  2**0
                  CONTENTS, READONLY, DEBUGGING
  7 .debug_abbrev 00000b52  00000000  00000000  00004a00  2**0
                  CONTENTS, READONLY, DEBUGGING
  8 .debug_line   0000145e  00000000  00000000  00005552  2**0
                  CONTENTS, READONLY, DEBUGGING
  9 .debug_frame  000002a4  00000000  00000000  000069b0  2**2
                  CONTENTS, READONLY, DEBUGGING
 10 .debug_str    00000814  00000000  00000000  00006c54  2**0
                  CONTENTS, READONLY, DEBUGGING
 11 .debug_loc    0000123d  00000000  00000000  00007468  2**0
                  CONTENTS, READONLY, DEBUGGING
 12 .debug_ranges 00000100  00000000  00000000  000086a5  2**0
                  CONTENTS, READONLY, DEBUGGING

Disassembly of section .text:

00000000 <__vectors>:
       0:	ac c0       	rjmp	.+344    	; 0x15a <__ctors_end>
       2:	00 00       	nop
       4:	c9 c0       	rjmp	.+402    	; 0x198 <__bad_interrupt>
       6:	00 00       	nop
       8:	c7 c0       	rjmp	.+398    	; 0x198 <__bad_interrupt>
       a:	00 00       	nop
       c:	c5 c0       	rjmp	.+394    	; 0x198 <__bad_interrupt>
       e:	00 00       	nop
      10:	c3 c0       	rjmp	.+390    	; 0x198 <__bad_interrupt>
      12:	00 00       	nop
      14:	c1 c0       	rjmp	.+386    	; 0x198 <__bad_interrupt>
      16:	00 00       	nop
      18:	bf c0       	rjmp	.+382    	; 0x198 <__bad_interrupt>
      1a:	00 00       	nop
      1c:	bd c0       	rjmp	.+378    	; 0x198 <__bad_interrupt>
      1e:	00 00       	nop
      20:	bb c0       	rjmp	.+374    	; 0x198 <__bad_interrupt>
      22:	00 00       	nop
      24:	b9 c0       	rjmp	.+370    	; 0x198 <__bad_interrupt>
      26:	00 00       	nop
      28:	b7 c0       	rjmp	.+366    	; 0x198 <__bad_interrupt>
      2a:	00 00       	nop
      2c:	b5 c0       	rjmp	.+362    	; 0x198 <__bad_interrupt>
      2e:	00 00       	nop
      30:	b3 c0       	rjmp	.+358    	; 0x198 <__bad_interrupt>
      32:	00 00       	nop
      34:	e7 c0       	rjmp	.+462    	; 0x204 <__vector_13>
      36:	00 00       	nop
      38:	af c0       	rjmp	.+350    	; 0x198 <__bad_interrupt>
      3a:	00 00       	nop
      3c:	ad c0       	rjmp	.+346    	; 0x198 <__bad_interrupt>
      3e:	00 00       	nop
      40:	ab c0       	rjmp	.+342    	; 0x198 <__bad_interrupt>
      42:	00 00       	nop
      44:	a9 c0       	rjmp	.+338    	; 0x198 <__bad_interrupt>
      46:	00 00       	nop
      48:	a7 c0       	rjmp	.+334    	; 0x198 <__bad_interrupt>
      4a:	00 00       	nop
      4c:	a5 c0       	rjmp	.+330    	; 0x198 <__bad_interrupt>
      4e:	00 00       	nop
      50:	a3 c0       	rjmp	.+326    	; 0x198 <__bad_interrupt>
      52:	00 00       	nop
      54:	a1 c0       	rjmp	.+322    	; 0x198 <__bad_interrupt>
      56:	00 00       	nop
      58:	9f c0       	rjmp	.+318    	; 0x198 <__bad_interrupt>
      5a:	00 00       	nop
      5c:	9d c0       	rjmp	.+314    	; 0x198 <__bad_interrupt>
      5e:	00 00       	nop
      60:	9b c0       	rjmp	.+310    	; 0x198 <__bad_interrupt>
      62:	00 00       	nop
      64:	99 c0       	rjmp	.+306    	; 0x198 <__bad_interrupt>
      66:	00 00       	nop
      68:	97 c0       	rjmp	.+302    	; 0x198 <__bad_interrupt>
      6a:	00 00       	nop
      6c:	95 c0       	rjmp	.+298    	; 0x198 <__bad_interrupt>
      6e:	00 00       	nop
      70:	93 c0       	rjmp	.+294    	; 0x198 <__bad_interrupt>
      72:	00 00       	nop
      74:	91 c0       	rjmp	.+290    	; 0x198 <__bad_interrupt>
      76:	00 00       	nop
      78:	8f c0       	rjmp	.+286    	; 0x198 <__bad_interrupt>
      7a:	00 00       	nop
      7c:	8d c0       	rjmp	.+282    	; 0x198 <__bad_interrupt>
      7e:	00 00       	nop
      80:	8b c0       	rjmp	.+278    	; 0x198 <__bad_interrupt>
      82:	00 00       	nop
      84:	89 c0       	rjmp	.+274    	; 0x198 <__bad_interrupt>
      86:	00 00       	nop
      88:	87 c0       	rjmp	.+270    	; 0x198 <__bad_interrupt>
      8a:	00 00       	nop
      8c:	fa 01       	movw	r30, r20
      8e:	fc 01       	movw	r30, r24
      90:	fe 01       	movw	r30, r28
      92:	00 02       	muls	r16, r16
      94:	02 02       	muls	r16, r18
      96:	04 02       	muls	r16, r20
      98:	06 02       	muls	r16, r22
      9a:	08 02       	muls	r16, r24
      9c:	0a 02       	muls	r16, r26
      9e:	2b 02       	muls	r18, r27
      a0:	17 02       	muls	r17, r23
      a2:	19 02       	muls	r17, r25
      a4:	1b 02       	muls	r17, r27
      a6:	1d 02       	muls	r17, r29
      a8:	1f 02       	muls	r17, r31
      aa:	21 02       	muls	r18, r17
      ac:	23 02       	muls	r18, r19
      ae:	25 02       	muls	r18, r21
      b0:	27 02       	muls	r18, r23
      b2:	26 07       	cpc	r18, r22
      b4:	6b 03       	fmul	r22, r19
      b6:	29 07       	cpc	r18, r25
      b8:	8f 03       	fmulsu	r16, r23
      ba:	68 03       	fmul	r22, r16
      bc:	c9 03       	fmulsu	r20, r17
      be:	7d 05       	cpc	r23, r13
      c0:	d3 03       	fmuls	r21, r19
      c2:	d9 03       	fmulsu	r21, r17
      c4:	d9 03       	fmulsu	r21, r17
      c6:	bd 0a       	sbc	r11, r29
      c8:	94 07       	cpc	r25, r20
      ca:	b0 07       	cpc	r27, r16
      cc:	52 09       	sbc	r21, r2
      ce:	68 09       	sbc	r22, r8
      d0:	6f 09       	sbc	r22, r15
      d2:	87 09       	sbc	r24, r7
      d4:	8d 09       	sbc	r24, r13
      d6:	95 09       	sbc	r25, r5
      d8:	07 63       	ori	r16, 0x37	; 55
      da:	42 36       	cpi	r20, 0x62	; 98
      dc:	b7 9b       	sbis	0x16, 7	; 22
      de:	d8 a7       	std	Y+40, r29	; 0x28
      e0:	1a 39       	cpi	r17, 0x9A	; 154
      e2:	68 56       	subi	r22, 0x68	; 104
      e4:	18 ae       	std	Y+56, r1	; 0x38
      e6:	ba ab       	std	Y+50, r27	; 0x32
      e8:	55 8c       	ldd	r5, Z+29	; 0x1d
      ea:	1d 3c       	cpi	r17, 0xCD	; 205
      ec:	b7 cc       	rjmp	.-1682   	; 0xfffffa5c <__eeprom_end+0xff7efa5c>
      ee:	57 63       	ori	r21, 0x37	; 55
      f0:	bd 6d       	ori	r27, 0xDD	; 221
      f2:	ed fd       	.word	0xfded	; ????
      f4:	75 3e       	cpi	r23, 0xE5	; 229
      f6:	f6 17       	cp	r31, r22
      f8:	72 31       	cpi	r23, 0x12	; 18
      fa:	bf 00       	.word	0x00bf	; ????
      fc:	00 00       	nop
      fe:	80 3f       	cpi	r24, 0xF0	; 240
     100:	08 00       	.word	0x0008	; ????
     102:	00 00       	nop
     104:	be 92       	st	-X, r11
     106:	24 49       	sbci	r18, 0x94	; 148
     108:	12 3e       	cpi	r17, 0xE2	; 226
     10a:	ab aa       	std	Y+51, r10	; 0x33
     10c:	aa 2a       	or	r10, r26
     10e:	be cd       	rjmp	.-1156   	; 0xfffffc8c <__eeprom_end+0xff7efc8c>
     110:	cc cc       	rjmp	.-1640   	; 0xfffffaaa <__eeprom_end+0xff7efaaa>
     112:	4c 3e       	cpi	r20, 0xEC	; 236
     114:	00 00       	nop
     116:	00 80       	ld	r0, Z
     118:	be ab       	std	Y+54, r27	; 0x36
     11a:	aa aa       	std	Y+50, r10	; 0x32
     11c:	aa 3e       	cpi	r26, 0xEA	; 234
     11e:	00 00       	nop
     120:	00 00       	nop
     122:	bf 00       	.word	0x00bf	; ????
     124:	00 00       	nop
     126:	80 3f       	cpi	r24, 0xF0	; 240
     128:	00 00       	nop
     12a:	00 00       	nop
     12c:	00 08       	sbc	r0, r0
     12e:	41 78       	andi	r20, 0x81	; 129
     130:	d3 bb       	out	0x13, r29	; 19
     132:	43 87       	std	Z+11, r20	; 0x0b
     134:	d1 13       	cpse	r29, r17
     136:	3d 19       	sub	r19, r13
     138:	0e 3c       	cpi	r16, 0xCE	; 206
     13a:	c3 bd       	out	0x23, r28	; 35
     13c:	42 82       	std	Z+2, r4	; 0x02
     13e:	ad 2b       	or	r26, r29
     140:	3e 68       	ori	r19, 0x8E	; 142
     142:	ec 82       	std	Y+4, r14	; 0x04
     144:	76 be       	out	0x36, r7	; 54
     146:	d9 8f       	std	Y+25, r29	; 0x19
     148:	e1 a9       	ldd	r30, Z+49	; 0x31
     14a:	3e 4c       	sbci	r19, 0xCE	; 206
     14c:	80 ef       	ldi	r24, 0xF0	; 240
     14e:	ff be       	out	0x3f, r15	; 63
     150:	01 c4       	rjmp	.+2050   	; 0x954 <trans+0x2b4>
     152:	ff 7f       	andi	r31, 0xFF	; 255
     154:	3f 00       	.word	0x003f	; ????
     156:	00 00       	nop
	...

0000015a <__ctors_end>:
     15a:	11 24       	eor	r1, r1
     15c:	1f be       	out	0x3f, r1	; 63
     15e:	cf ef       	ldi	r28, 0xFF	; 255
     160:	d0 e4       	ldi	r29, 0x40	; 64
     162:	de bf       	out	0x3e, r29	; 62
     164:	cd bf       	out	0x3d, r28	; 61

00000166 <__do_copy_data>:
     166:	12 e0       	ldi	r17, 0x02	; 2
     168:	a0 e0       	ldi	r26, 0x00	; 0
     16a:	b1 e0       	ldi	r27, 0x01	; 1
     16c:	e8 e3       	ldi	r30, 0x38	; 56
     16e:	ff e1       	ldi	r31, 0x1F	; 31
     170:	00 e0       	ldi	r16, 0x00	; 0
     172:	0b bf       	out	0x3b, r16	; 59
     174:	02 c0       	rjmp	.+4      	; 0x17a <__do_copy_data+0x14>
     176:	07 90       	elpm	r0, Z+
     178:	0d 92       	st	X+, r0
     17a:	a4 30       	cpi	r26, 0x04	; 4
     17c:	b1 07       	cpc	r27, r17
     17e:	d9 f7       	brne	.-10     	; 0x176 <__do_copy_data+0x10>

00000180 <__do_clear_bss>:
     180:	22 e0       	ldi	r18, 0x02	; 2
     182:	a4 e0       	ldi	r26, 0x04	; 4
     184:	b2 e0       	ldi	r27, 0x02	; 2
     186:	01 c0       	rjmp	.+2      	; 0x18a <.do_clear_bss_start>

00000188 <.do_clear_bss_loop>:
     188:	1d 92       	st	X+, r1

0000018a <.do_clear_bss_start>:
     18a:	a4 37       	cpi	r26, 0x74	; 116
     18c:	b2 07       	cpc	r27, r18
     18e:	e1 f7       	brne	.-8      	; 0x188 <.do_clear_bss_loop>
     190:	0e 94 44 0b 	call	0x1688	; 0x1688 <main>
     194:	0c 94 9a 0f 	jmp	0x1f34	; 0x1f34 <_exit>

00000198 <__bad_interrupt>:
     198:	33 cf       	rjmp	.-410    	; 0x0 <__vectors>

0000019a <TimerSet>:
void TimerOff() {
	TCCR1B 	= 0x00; // bit3bit2bit1bit0=0000: timer off
}

void TimerISR() {
	TimerFlag = 1;
     19a:	60 93 00 01 	sts	0x0100, r22	; 0x800100 <__data_start>
     19e:	70 93 01 01 	sts	0x0101, r23	; 0x800101 <__data_start+0x1>
     1a2:	80 93 02 01 	sts	0x0102, r24	; 0x800102 <__data_start+0x2>
     1a6:	90 93 03 01 	sts	0x0103, r25	; 0x800103 <__data_start+0x3>
     1aa:	60 93 69 02 	sts	0x0269, r22	; 0x800269 <_avr_timer_cntcurr>
     1ae:	70 93 6a 02 	sts	0x026A, r23	; 0x80026a <_avr_timer_cntcurr+0x1>
     1b2:	80 93 6b 02 	sts	0x026B, r24	; 0x80026b <_avr_timer_cntcurr+0x2>
     1b6:	90 93 6c 02 	sts	0x026C, r25	; 0x80026c <_avr_timer_cntcurr+0x3>
     1ba:	08 95       	ret

000001bc <TimerOn>:
     1bc:	8b e0       	ldi	r24, 0x0B	; 11
     1be:	80 93 81 00 	sts	0x0081, r24	; 0x800081 <__TEXT_REGION_LENGTH__+0x7e0081>
     1c2:	8d e7       	ldi	r24, 0x7D	; 125
     1c4:	90 e0       	ldi	r25, 0x00	; 0
     1c6:	90 93 89 00 	sts	0x0089, r25	; 0x800089 <__TEXT_REGION_LENGTH__+0x7e0089>
     1ca:	80 93 88 00 	sts	0x0088, r24	; 0x800088 <__TEXT_REGION_LENGTH__+0x7e0088>
     1ce:	82 e0       	ldi	r24, 0x02	; 2
     1d0:	80 93 6f 00 	sts	0x006F, r24	; 0x80006f <__TEXT_REGION_LENGTH__+0x7e006f>
     1d4:	10 92 85 00 	sts	0x0085, r1	; 0x800085 <__TEXT_REGION_LENGTH__+0x7e0085>
     1d8:	10 92 84 00 	sts	0x0084, r1	; 0x800084 <__TEXT_REGION_LENGTH__+0x7e0084>
     1dc:	80 91 00 01 	lds	r24, 0x0100	; 0x800100 <__data_start>
     1e0:	90 91 01 01 	lds	r25, 0x0101	; 0x800101 <__data_start+0x1>
     1e4:	a0 91 02 01 	lds	r26, 0x0102	; 0x800102 <__data_start+0x2>
     1e8:	b0 91 03 01 	lds	r27, 0x0103	; 0x800103 <__data_start+0x3>
     1ec:	80 93 69 02 	sts	0x0269, r24	; 0x800269 <_avr_timer_cntcurr>
     1f0:	90 93 6a 02 	sts	0x026A, r25	; 0x80026a <_avr_timer_cntcurr+0x1>
     1f4:	a0 93 6b 02 	sts	0x026B, r26	; 0x80026b <_avr_timer_cntcurr+0x2>
     1f8:	b0 93 6c 02 	sts	0x026C, r27	; 0x80026c <_avr_timer_cntcurr+0x3>
     1fc:	8f b7       	in	r24, 0x3f	; 63
     1fe:	80 68       	ori	r24, 0x80	; 128
     200:	8f bf       	out	0x3f, r24	; 63
     202:	08 95       	ret

00000204 <__vector_13>:
}

// In our approach, the C programmer does not touch this ISR, but rather TimerISR()
ISR(TIMER1_COMPA_vect)
{
     204:	1f 92       	push	r1
     206:	0f 92       	push	r0
     208:	0f b6       	in	r0, 0x3f	; 63
     20a:	0f 92       	push	r0
     20c:	11 24       	eor	r1, r1
     20e:	8f 93       	push	r24
     210:	9f 93       	push	r25
     212:	af 93       	push	r26
     214:	bf 93       	push	r27
	// CPU automatically calls when TCNT0 == OCR0 (every 1 ms per TimerOn settings)
	_avr_timer_cntcurr--; 			// Count down to 0 rather than up to TOP
     216:	80 91 69 02 	lds	r24, 0x0269	; 0x800269 <_avr_timer_cntcurr>
     21a:	90 91 6a 02 	lds	r25, 0x026A	; 0x80026a <_avr_timer_cntcurr+0x1>
     21e:	a0 91 6b 02 	lds	r26, 0x026B	; 0x80026b <_avr_timer_cntcurr+0x2>
     222:	b0 91 6c 02 	lds	r27, 0x026C	; 0x80026c <_avr_timer_cntcurr+0x3>
     226:	01 97       	sbiw	r24, 0x01	; 1
     228:	a1 09       	sbc	r26, r1
     22a:	b1 09       	sbc	r27, r1
     22c:	80 93 69 02 	sts	0x0269, r24	; 0x800269 <_avr_timer_cntcurr>
     230:	90 93 6a 02 	sts	0x026A, r25	; 0x80026a <_avr_timer_cntcurr+0x1>
     234:	a0 93 6b 02 	sts	0x026B, r26	; 0x80026b <_avr_timer_cntcurr+0x2>
     238:	b0 93 6c 02 	sts	0x026C, r27	; 0x80026c <_avr_timer_cntcurr+0x3>
	if (_avr_timer_cntcurr == 0) { 	// results in a more efficient compare
     23c:	89 2b       	or	r24, r25
     23e:	8a 2b       	or	r24, r26
     240:	8b 2b       	or	r24, r27
     242:	99 f4       	brne	.+38     	; 0x26a <__vector_13+0x66>
void TimerOff() {
	TCCR1B 	= 0x00; // bit3bit2bit1bit0=0000: timer off
}

void TimerISR() {
	TimerFlag = 1;
     244:	81 e0       	ldi	r24, 0x01	; 1
     246:	80 93 6d 02 	sts	0x026D, r24	; 0x80026d <TimerFlag>
{
	// CPU automatically calls when TCNT0 == OCR0 (every 1 ms per TimerOn settings)
	_avr_timer_cntcurr--; 			// Count down to 0 rather than up to TOP
	if (_avr_timer_cntcurr == 0) { 	// results in a more efficient compare
		TimerISR(); 				// Call the ISR that the user uses
		_avr_timer_cntcurr = _avr_timer_M;
     24a:	80 91 00 01 	lds	r24, 0x0100	; 0x800100 <__data_start>
     24e:	90 91 01 01 	lds	r25, 0x0101	; 0x800101 <__data_start+0x1>
     252:	a0 91 02 01 	lds	r26, 0x0102	; 0x800102 <__data_start+0x2>
     256:	b0 91 03 01 	lds	r27, 0x0103	; 0x800103 <__data_start+0x3>
     25a:	80 93 69 02 	sts	0x0269, r24	; 0x800269 <_avr_timer_cntcurr>
     25e:	90 93 6a 02 	sts	0x026A, r25	; 0x80026a <_avr_timer_cntcurr+0x1>
     262:	a0 93 6b 02 	sts	0x026B, r26	; 0x80026b <_avr_timer_cntcurr+0x2>
     266:	b0 93 6c 02 	sts	0x026C, r27	; 0x80026c <_avr_timer_cntcurr+0x3>
	}
}
     26a:	bf 91       	pop	r27
     26c:	af 91       	pop	r26
     26e:	9f 91       	pop	r25
     270:	8f 91       	pop	r24
     272:	0f 90       	pop	r0
     274:	0f be       	out	0x3f, r0	; 63
     276:	0f 90       	pop	r0
     278:	1f 90       	pop	r1
     27a:	18 95       	reti

0000027c <delay_ms>:

void delay_ms(int miliSec) //for 8 Mhz crystal

{
    int i,j;
    for(i=0;i<miliSec;i++)
     27c:	18 16       	cp	r1, r24
     27e:	19 06       	cpc	r1, r25
     280:	5c f0       	brlt	.+22     	; 0x298 <delay_ms+0x1c>
     282:	08 95       	ret
        for(j=0;j<775;j++)
        {
            asm("nop");
     284:	00 00       	nop
     286:	21 50       	subi	r18, 0x01	; 1
     288:	31 09       	sbc	r19, r1
void delay_ms(int miliSec) //for 8 Mhz crystal

{
    int i,j;
    for(i=0;i<miliSec;i++)
        for(j=0;j<775;j++)
     28a:	e1 f7       	brne	.-8      	; 0x284 <delay_ms+0x8>

void delay_ms(int miliSec) //for 8 Mhz crystal

{
    int i,j;
    for(i=0;i<miliSec;i++)
     28c:	4f 5f       	subi	r20, 0xFF	; 255
     28e:	5f 4f       	sbci	r21, 0xFF	; 255
     290:	84 17       	cp	r24, r20
     292:	95 07       	cpc	r25, r21
     294:	19 f4       	brne	.+6      	; 0x29c <delay_ms+0x20>
     296:	08 95       	ret
     298:	40 e0       	ldi	r20, 0x00	; 0
     29a:	50 e0       	ldi	r21, 0x00	; 0
    }
}

void delay_ms(int miliSec) //for 8 Mhz crystal

{
     29c:	27 e0       	ldi	r18, 0x07	; 7
     29e:	33 e0       	ldi	r19, 0x03	; 3
     2a0:	f1 cf       	rjmp	.-30     	; 0x284 <delay_ms+0x8>

000002a2 <LCD_WriteCommand>:
    LCD_WriteCommand(0x01);
    delay_ms(10);
}

void LCD_WriteCommand (unsigned char Command) {
    CLR_BIT(CONTROL_BUS,RS);
     2a2:	10 98       	cbi	0x02, 0	; 2
    DATA_BUS = Command;
     2a4:	8b b9       	out	0x0b, r24	; 11
    SET_BIT(CONTROL_BUS,E);
     2a6:	11 9a       	sbi	0x02, 1	; 2
    asm("nop");
     2a8:	00 00       	nop
    CLR_BIT(CONTROL_BUS,E);
     2aa:	11 98       	cbi	0x02, 1	; 2
    delay_ms(2); // ClearScreen requires 1.52ms to execute
     2ac:	82 e0       	ldi	r24, 0x02	; 2
     2ae:	90 e0       	ldi	r25, 0x00	; 0
     2b0:	e5 cf       	rjmp	.-54     	; 0x27c <delay_ms>
     2b2:	08 95       	ret

000002b4 <LCD_ClearScreen>:
#define E 1			// pin number of uC connected to pin 6 of LCD disp.

/*-------------------------------------------------------------------------*/

void LCD_ClearScreen(void) {
    LCD_WriteCommand(0x01);
     2b4:	81 e0       	ldi	r24, 0x01	; 1
     2b6:	f5 cf       	rjmp	.-22     	; 0x2a2 <LCD_WriteCommand>
     2b8:	08 95       	ret

000002ba <LCD_Cursor>:
        LCD_WriteData(*string++);
    }
}

void LCD_Cursor(unsigned char column) {
    if ( column < 17 ) { // 16x1 LCD: column < 9
     2ba:	81 31       	cpi	r24, 0x11	; 17
     2bc:	18 f4       	brcc	.+6      	; 0x2c4 <LCD_Cursor+0xa>
        // 16x2 LCD: column < 17
        LCD_WriteCommand(0x80 + column - 1);
     2be:	81 58       	subi	r24, 0x81	; 129
     2c0:	f0 cf       	rjmp	.-32     	; 0x2a2 <LCD_WriteCommand>
     2c2:	08 95       	ret
    } else {
        LCD_WriteCommand(0xB8 + column - 9);	// 16x1 LCD: column - 1
     2c4:	81 55       	subi	r24, 0x51	; 81
     2c6:	ed cf       	rjmp	.-38     	; 0x2a2 <LCD_WriteCommand>
     2c8:	08 95       	ret

000002ca <LCD_init>:
}

void LCD_init(void) {
    
    //wait for 100 ms.
    delay_ms(100);
     2ca:	84 e6       	ldi	r24, 0x64	; 100
     2cc:	90 e0       	ldi	r25, 0x00	; 0
     2ce:	d6 df       	rcall	.-84     	; 0x27c <delay_ms>
    LCD_WriteCommand(0x38);
     2d0:	88 e3       	ldi	r24, 0x38	; 56
     2d2:	e7 df       	rcall	.-50     	; 0x2a2 <LCD_WriteCommand>
    LCD_WriteCommand(0x06);
     2d4:	86 e0       	ldi	r24, 0x06	; 6
     2d6:	e5 df       	rcall	.-54     	; 0x2a2 <LCD_WriteCommand>
    LCD_WriteCommand(0x0f);
     2d8:	8f e0       	ldi	r24, 0x0F	; 15
     2da:	e3 df       	rcall	.-58     	; 0x2a2 <LCD_WriteCommand>
    LCD_WriteCommand(0x01);
     2dc:	81 e0       	ldi	r24, 0x01	; 1
     2de:	e1 df       	rcall	.-62     	; 0x2a2 <LCD_WriteCommand>
    delay_ms(10);
     2e0:	8a e0       	ldi	r24, 0x0A	; 10
     2e2:	90 e0       	ldi	r25, 0x00	; 0
     2e4:	cb cf       	rjmp	.-106    	; 0x27c <delay_ms>
     2e6:	08 95       	ret

000002e8 <LCD_WriteData>:
     2e8:	10 9a       	sbi	0x02, 0	; 2
    delay_ms(2); // ClearScreen requires 1.52ms to execute
}

void LCD_WriteData(unsigned char Data) {
    SET_BIT(CONTROL_BUS,RS);
    DATA_BUS = Data;
     2ea:	8b b9       	out	0x0b, r24	; 11
    SET_BIT(CONTROL_BUS,E);
     2ec:	11 9a       	sbi	0x02, 1	; 2
    asm("nop");
     2ee:	00 00       	nop
    CLR_BIT(CONTROL_BUS,E);
     2f0:	11 98       	cbi	0x02, 1	; 2
    delay_ms(1);
     2f2:	81 e0       	ldi	r24, 0x01	; 1
     2f4:	90 e0       	ldi	r25, 0x00	; 0
     2f6:	c2 cf       	rjmp	.-124    	; 0x27c <delay_ms>
     2f8:	08 95       	ret

000002fa <LCD_DisplayString>:
}

void LCD_DisplayString( unsigned char column, const unsigned char* string) {
     2fa:	0f 93       	push	r16
     2fc:	1f 93       	push	r17
     2fe:	cf 93       	push	r28
     300:	df 93       	push	r29
     302:	18 2f       	mov	r17, r24
     304:	eb 01       	movw	r28, r22
    LCD_ClearScreen();
     306:	d6 df       	rcall	.-84     	; 0x2b4 <LCD_ClearScreen>
    unsigned char c = column;
    while(*string) {
     308:	88 81       	ld	r24, Y
     30a:	88 23       	and	r24, r24
     30c:	51 f0       	breq	.+20     	; 0x322 <LCD_DisplayString+0x28>
        LCD_Cursor(c++);
     30e:	01 e0       	ldi	r16, 0x01	; 1
     310:	01 0f       	add	r16, r17
     312:	81 2f       	mov	r24, r17
     314:	d2 df       	rcall	.-92     	; 0x2ba <LCD_Cursor>
        LCD_WriteData(*string++);
     316:	89 91       	ld	r24, Y+
     318:	e7 df       	rcall	.-50     	; 0x2e8 <LCD_WriteData>
     31a:	10 2f       	mov	r17, r16

void LCD_DisplayString( unsigned char column, const unsigned char* string) {
    LCD_ClearScreen();
    unsigned char c = column;
    while(*string) {
        LCD_Cursor(c++);
     31c:	88 81       	ld	r24, Y
}

void LCD_DisplayString( unsigned char column, const unsigned char* string) {
    LCD_ClearScreen();
    unsigned char c = column;
    while(*string) {
     31e:	81 11       	cpse	r24, r1
     320:	f6 cf       	rjmp	.-20     	; 0x30e <LCD_DisplayString+0x14>
     322:	df 91       	pop	r29
        LCD_Cursor(c++);
        LCD_WriteData(*string++);
    }
}
     324:	cf 91       	pop	r28
     326:	1f 91       	pop	r17
     328:	0f 91       	pop	r16
     32a:	08 95       	ret

0000032c <Menu>:
     32c:	81 30       	cpi	r24, 0x01	; 1
	return state;
}

int Menu(int state)
{
	switch(state)
     32e:	91 05       	cpc	r25, r1
     330:	59 f0       	breq	.+22     	; 0x348 <Menu+0x1c>
     332:	24 f4       	brge	.+8      	; 0x33c <Menu+0x10>
     334:	89 2b       	or	r24, r25
     336:	09 f4       	brne	.+2      	; 0x33a <Menu+0xe>
     338:	44 c0       	rjmp	.+136    	; 0x3c2 <Menu+0x96>
     33a:	4c c0       	rjmp	.+152    	; 0x3d4 <Menu+0xa8>
     33c:	82 30       	cpi	r24, 0x02	; 2
     33e:	91 05       	cpc	r25, r1
     340:	49 f0       	breq	.+18     	; 0x354 <Menu+0x28>
     342:	03 97       	sbiw	r24, 0x03	; 3
     344:	71 f0       	breq	.+28     	; 0x362 <Menu+0x36>
     346:	46 c0       	rjmp	.+140    	; 0x3d4 <Menu+0xa8>
			state = pauseM;
			break;
		}
		case pauseM:
		{
			if(pos == 1)
     348:	20 91 6f 02 	lds	r18, 0x026F	; 0x80026f <pos>
     34c:	21 30       	cpi	r18, 0x01	; 1
     34e:	09 f0       	breq	.+2      	; 0x352 <Menu+0x26>
     350:	46 c0       	rjmp	.+140    	; 0x3de <Menu+0xb2>
     352:	0b c0       	rjmp	.+22     	; 0x36a <Menu+0x3e>
			}
			break;
		}
		case transaction:
		{
			if(pos == 1)
     354:	80 91 6f 02 	lds	r24, 0x026F	; 0x80026f <pos>
     358:	81 30       	cpi	r24, 0x01	; 1
     35a:	e9 f0       	breq	.+58     	; 0x396 <Menu+0x6a>
			{
				state = settings;
			}
			else
			{
				state = pauseM;
     35c:	81 e0       	ldi	r24, 0x01	; 1
     35e:	90 e0       	ldi	r25, 0x00	; 0
     360:	08 95       	ret
			}
			break;
		}
		case settings:
		{
			if(pos == 1)
     362:	80 91 6f 02 	lds	r24, 0x026F	; 0x80026f <pos>
     366:	81 30       	cpi	r24, 0x01	; 1
     368:	c1 f5       	brne	.+112    	; 0x3da <Menu+0xae>
		{
			break;
		}
		case transaction:
		{
			LCD_DisplayString(1, "A. Transactions");
     36a:	6e e0       	ldi	r22, 0x0E	; 14
     36c:	71 e0       	ldi	r23, 0x01	; 1
     36e:	81 e0       	ldi	r24, 0x01	; 1
     370:	c4 df       	rcall	.-120    	; 0x2fa <LCD_DisplayString>
			if(key2 == 'A')
     372:	80 91 73 02 	lds	r24, 0x0273	; 0x800273 <key2>
     376:	81 34       	cpi	r24, 0x41	; 65
     378:	31 f4       	brne	.+12     	; 0x386 <Menu+0x5a>
			{
				pos = 2;
     37a:	82 e0       	ldi	r24, 0x02	; 2
     37c:	80 93 6f 02 	sts	0x026F, r24	; 0x80026f <pos>
     380:	82 e0       	ldi	r24, 0x02	; 2
     382:	90 e0       	ldi	r25, 0x00	; 0
     384:	08 95       	ret
			}
			else if(key2 == 'B')
     386:	82 34       	cpi	r24, 0x42	; 66
     388:	f9 f4       	brne	.+62     	; 0x3c8 <Menu+0x9c>
			{
				pos = 4;
     38a:	84 e0       	ldi	r24, 0x04	; 4
     38c:	80 93 6f 02 	sts	0x026F, r24	; 0x80026f <pos>
     390:	82 e0       	ldi	r24, 0x02	; 2
     392:	90 e0       	ldi	r25, 0x00	; 0
     394:	08 95       	ret
			}
			break;
		}
		case settings:
		{
			LCD_DisplayString(1, "B. Settings");
     396:	6e e1       	ldi	r22, 0x1E	; 30
     398:	71 e0       	ldi	r23, 0x01	; 1
     39a:	81 e0       	ldi	r24, 0x01	; 1
     39c:	ae df       	rcall	.-164    	; 0x2fa <LCD_DisplayString>
			if(key2 == 'A')
     39e:	80 91 73 02 	lds	r24, 0x0273	; 0x800273 <key2>
     3a2:	81 34       	cpi	r24, 0x41	; 65
     3a4:	31 f4       	brne	.+12     	; 0x3b2 <Menu+0x86>
			{
				pos = 2;
     3a6:	82 e0       	ldi	r24, 0x02	; 2
     3a8:	80 93 6f 02 	sts	0x026F, r24	; 0x80026f <pos>
     3ac:	83 e0       	ldi	r24, 0x03	; 3
     3ae:	90 e0       	ldi	r25, 0x00	; 0
     3b0:	08 95       	ret
			}
			else if(key2 == 'B')
     3b2:	82 34       	cpi	r24, 0x42	; 66
     3b4:	61 f4       	brne	.+24     	; 0x3ce <Menu+0xa2>
			{
				pos = 4;
     3b6:	84 e0       	ldi	r24, 0x04	; 4
     3b8:	80 93 6f 02 	sts	0x026F, r24	; 0x80026f <pos>
     3bc:	83 e0       	ldi	r24, 0x03	; 3
     3be:	90 e0       	ldi	r25, 0x00	; 0
     3c0:	08 95       	ret
	switch(state)
	{
		case startM:
		{
			//pos = 3;
			state = pauseM;
     3c2:	81 e0       	ldi	r24, 0x01	; 1
     3c4:	90 e0       	ldi	r25, 0x00	; 0
     3c6:	08 95       	ret
     3c8:	82 e0       	ldi	r24, 0x02	; 2
     3ca:	90 e0       	ldi	r25, 0x00	; 0
     3cc:	08 95       	ret
     3ce:	83 e0       	ldi	r24, 0x03	; 3
     3d0:	90 e0       	ldi	r25, 0x00	; 0
     3d2:	08 95       	ret
			}
			break;
		}
		default:
		{
			state = startM;
     3d4:	80 e0       	ldi	r24, 0x00	; 0
     3d6:	90 e0       	ldi	r25, 0x00	; 0
     3d8:	08 95       	ret
			{
				state = transaction;
			}
			else
			{
				state = pauseM;
     3da:	81 e0       	ldi	r24, 0x01	; 1
     3dc:	90 e0       	ldi	r25, 0x00	; 0
		{
			break;
		}
	}
	return state;
}
     3de:	08 95       	ret

000003e0 <changetoInteger>:
#include "io.c"
#include "io.h"

unsigned char changetoInteger(unsigned char var)
{
	switch(var)
     3e0:	90 e0       	ldi	r25, 0x00	; 0
     3e2:	fc 01       	movw	r30, r24
     3e4:	f1 97       	sbiw	r30, 0x31	; 49
     3e6:	e9 30       	cpi	r30, 0x09	; 9
     3e8:	f1 05       	cpc	r31, r1
     3ea:	b0 f4       	brcc	.+44     	; 0x418 <__LOCK_REGION_LENGTH__+0x18>
     3ec:	ea 5b       	subi	r30, 0xBA	; 186
     3ee:	ff 4f       	sbci	r31, 0xFF	; 255
     3f0:	0c 94 5e 0f 	jmp	0x1ebc	; 0x1ebc <__tablejump2__>
	{
		case '0': return 0;
		case '1': return 1;
     3f4:	81 e0       	ldi	r24, 0x01	; 1
     3f6:	08 95       	ret
		case '2': return 2;
     3f8:	82 e0       	ldi	r24, 0x02	; 2
     3fa:	08 95       	ret
		case '3': return 3;
     3fc:	83 e0       	ldi	r24, 0x03	; 3
     3fe:	08 95       	ret
		case '4': return 4;
     400:	84 e0       	ldi	r24, 0x04	; 4
     402:	08 95       	ret
		case '5': return 5;
     404:	85 e0       	ldi	r24, 0x05	; 5
     406:	08 95       	ret
		case '6': return 6;
     408:	86 e0       	ldi	r24, 0x06	; 6
     40a:	08 95       	ret
		case '7': return 7;
     40c:	87 e0       	ldi	r24, 0x07	; 7
     40e:	08 95       	ret
		case '8': return 8;
     410:	88 e0       	ldi	r24, 0x08	; 8
     412:	08 95       	ret
		case '9': return 9;
     414:	89 e0       	ldi	r24, 0x09	; 9
     416:	08 95       	ret

unsigned char changetoInteger(unsigned char var)
{
	switch(var)
	{
		case '0': return 0;
     418:	80 e0       	ldi	r24, 0x00	; 0
		case '7': return 7;
		case '8': return 8;
		case '9': return 9;
		default: return 0;
	}
}
     41a:	08 95       	ret

0000041c <changetoChar>:
char changetoChar(unsigned char num)
{
	switch(num)
     41c:	90 e0       	ldi	r25, 0x00	; 0
     41e:	8a 30       	cpi	r24, 0x0A	; 10
     420:	91 05       	cpc	r25, r1
     422:	b8 f4       	brcc	.+46     	; 0x452 <changetoChar+0x36>
     424:	fc 01       	movw	r30, r24
     426:	e1 5b       	subi	r30, 0xB1	; 177
     428:	ff 4f       	sbci	r31, 0xFF	; 255
     42a:	0c 94 5e 0f 	jmp	0x1ebc	; 0x1ebc <__tablejump2__>
	{
		case 0: return '0';
		case 1: return '1';
     42e:	81 e3       	ldi	r24, 0x31	; 49
     430:	08 95       	ret
		case 2: return '2';
     432:	82 e3       	ldi	r24, 0x32	; 50
     434:	08 95       	ret
		case 3: return '3';
     436:	83 e3       	ldi	r24, 0x33	; 51
     438:	08 95       	ret
		case 4: return '4';
     43a:	84 e3       	ldi	r24, 0x34	; 52
     43c:	08 95       	ret
		case 5: return '5';
     43e:	85 e3       	ldi	r24, 0x35	; 53
     440:	08 95       	ret
		case 6: return '6';
     442:	86 e3       	ldi	r24, 0x36	; 54
     444:	08 95       	ret
		case 7: return '7';
     446:	87 e3       	ldi	r24, 0x37	; 55
     448:	08 95       	ret
		case 8: return '8';
     44a:	88 e3       	ldi	r24, 0x38	; 56
     44c:	08 95       	ret
		case 9: return '9';
     44e:	89 e3       	ldi	r24, 0x39	; 57
     450:	08 95       	ret
		default: return '\0';
     452:	80 e0       	ldi	r24, 0x00	; 0
     454:	08 95       	ret
}
char changetoChar(unsigned char num)
{
	switch(num)
	{
		case 0: return '0';
     456:	80 e3       	ldi	r24, 0x30	; 48
		case 8: return '8';
		case 9: return '9';
		default: return '\0';

	}
}
     458:	08 95       	ret

0000045a <findHowManyB4Dec>:
unsigned char findHowManyB4Dec(unsigned char num)
{
	if(num >= 100)
     45a:	84 36       	cpi	r24, 0x64	; 100
     45c:	38 f4       	brcc	.+14     	; 0x46c <findHowManyB4Dec+0x12>
	{
		return 3;
	}
	else if(num >= 10)
     45e:	8a 30       	cpi	r24, 0x0A	; 10
     460:	38 f4       	brcc	.+14     	; 0x470 <findHowManyB4Dec+0x16>
}
unsigned char findHowManyB4Dec(unsigned char num)
{
	if(num >= 100)
	{
		return 3;
     462:	91 e0       	ldi	r25, 0x01	; 1
     464:	81 11       	cpse	r24, r1
     466:	05 c0       	rjmp	.+10     	; 0x472 <findHowManyB4Dec+0x18>
     468:	90 e0       	ldi	r25, 0x00	; 0
     46a:	03 c0       	rjmp	.+6      	; 0x472 <findHowManyB4Dec+0x18>
     46c:	93 e0       	ldi	r25, 0x03	; 3
     46e:	01 c0       	rjmp	.+2      	; 0x472 <findHowManyB4Dec+0x18>
	}
	else if(num >= 10)
	{
		return 2;
     470:	92 e0       	ldi	r25, 0x02	; 2
	else
	{
		return 0;
	}
	
}
     472:	89 2f       	mov	r24, r25
     474:	08 95       	ret

00000476 <clearArray>:

void clearArray(unsigned char *a, unsigned char size)
{
	for(int i = 0; i < size; i++)
     476:	66 23       	and	r22, r22
     478:	39 f0       	breq	.+14     	; 0x488 <clearArray+0x12>
     47a:	fc 01       	movw	r30, r24
     47c:	86 0f       	add	r24, r22
     47e:	91 1d       	adc	r25, r1
	{
		a[i] = 0;
     480:	11 92       	st	Z+, r1
	
}

void clearArray(unsigned char *a, unsigned char size)
{
	for(int i = 0; i < size; i++)
     482:	e8 17       	cp	r30, r24
     484:	f9 07       	cpc	r31, r25
     486:	e1 f7       	brne	.-8      	; 0x480 <clearArray+0xa>
     488:	08 95       	ret

0000048a <GetKeypadKey>:
}

// Keypad input function
unsigned char GetKeypadKey() {
    
    PORTC = 0xEF; // Enable col 4 with 0, disable others with 1?s
     48a:	8f ee       	ldi	r24, 0xEF	; 239
     48c:	88 b9       	out	0x08, r24	; 8
    asm("nop"); // add a delay to allow PORTC to stabilize before checking
     48e:	00 00       	nop
    if (GetBit(PINC,0)==0) { return('1'); }
     490:	30 9b       	sbis	0x06, 0	; 6
     492:	29 c0       	rjmp	.+82     	; 0x4e6 <GetKeypadKey+0x5c>
    if (GetBit(PINC,1)==0) { return('4'); }
     494:	31 9b       	sbis	0x06, 1	; 6
     496:	29 c0       	rjmp	.+82     	; 0x4ea <GetKeypadKey+0x60>
    if (GetBit(PINC,2)==0) { return('7'); }
     498:	32 9b       	sbis	0x06, 2	; 6
     49a:	29 c0       	rjmp	.+82     	; 0x4ee <GetKeypadKey+0x64>
    if (GetBit(PINC,3)==0) { return('.'); }
     49c:	33 9b       	sbis	0x06, 3	; 6
     49e:	29 c0       	rjmp	.+82     	; 0x4f2 <GetKeypadKey+0x68>
    
    // Check keys in col 2
    PORTC = 0xDF; // Enable col 5 with 0, disable others with 1?s
     4a0:	8f ed       	ldi	r24, 0xDF	; 223
     4a2:	88 b9       	out	0x08, r24	; 8
    asm("nop"); // add a delay to allow PORTC to stabilize before checking
     4a4:	00 00       	nop
    if (GetBit(PINC,0)==0) { return('2'); }
     4a6:	30 9b       	sbis	0x06, 0	; 6
     4a8:	26 c0       	rjmp	.+76     	; 0x4f6 <GetKeypadKey+0x6c>
    if (GetBit(PINC,1)==0) { return('5'); }
     4aa:	31 9b       	sbis	0x06, 1	; 6
     4ac:	26 c0       	rjmp	.+76     	; 0x4fa <GetKeypadKey+0x70>
    if (GetBit(PINC,2)==0) { return('8'); }
     4ae:	32 9b       	sbis	0x06, 2	; 6
     4b0:	26 c0       	rjmp	.+76     	; 0x4fe <GetKeypadKey+0x74>
    if (GetBit(PINC,3)==0) { return('0'); }
     4b2:	33 9b       	sbis	0x06, 3	; 6
     4b4:	26 c0       	rjmp	.+76     	; 0x502 <GetKeypadKey+0x78>
    // ... *****FINISH*****
    
    // Check keys in col 3
    PORTC = 0xBF; // Enable col 6 with 0, disable others with 1?s
     4b6:	8f eb       	ldi	r24, 0xBF	; 191
     4b8:	88 b9       	out	0x08, r24	; 8
    asm("nop"); // add a delay to allow PORTC to stabilize before checking
     4ba:	00 00       	nop
    // ... *****FINISH*****
    if (GetBit(PINC,0)==0) { return('3'); }
     4bc:	30 9b       	sbis	0x06, 0	; 6
     4be:	23 c0       	rjmp	.+70     	; 0x506 <GetKeypadKey+0x7c>
    if (GetBit(PINC,1)==0) { return('6'); }
     4c0:	31 9b       	sbis	0x06, 1	; 6
     4c2:	23 c0       	rjmp	.+70     	; 0x50a <GetKeypadKey+0x80>
    if (GetBit(PINC,2)==0) { return('9'); }
     4c4:	32 9b       	sbis	0x06, 2	; 6
     4c6:	23 c0       	rjmp	.+70     	; 0x50e <GetKeypadKey+0x84>
    if (GetBit(PINC,3)==0) { return('#'); }
     4c8:	33 9b       	sbis	0x06, 3	; 6
     4ca:	23 c0       	rjmp	.+70     	; 0x512 <GetKeypadKey+0x88>
    
    // Check keys in col 4
    // ... *****FINISH*****
    PORTC = 0x7F;   // Enables column 7 with 0, disable all others with 1
     4cc:	8f e7       	ldi	r24, 0x7F	; 127
     4ce:	88 b9       	out	0x08, r24	; 8
    asm("nop"); // Adds delay to allow PORTC to stabilize before checking
     4d0:	00 00       	nop
    if (GetBit(PINC,0)==0) { return('A'); }
     4d2:	30 9b       	sbis	0x06, 0	; 6
     4d4:	20 c0       	rjmp	.+64     	; 0x516 <GetKeypadKey+0x8c>
    if (GetBit(PINC,1)==0) { return('B'); }
     4d6:	31 9b       	sbis	0x06, 1	; 6
     4d8:	20 c0       	rjmp	.+64     	; 0x51a <GetKeypadKey+0x90>
    if (GetBit(PINC,2)==0) { return('C'); }
     4da:	32 9b       	sbis	0x06, 2	; 6
     4dc:	20 c0       	rjmp	.+64     	; 0x51e <GetKeypadKey+0x94>
    if (GetBit(PINC,3)==0) { return('D'); }
     4de:	33 9b       	sbis	0x06, 3	; 6
     4e0:	20 c0       	rjmp	.+64     	; 0x522 <GetKeypadKey+0x98>
    
    return('\0'); // default value
     4e2:	80 e0       	ldi	r24, 0x00	; 0
     4e4:	08 95       	ret
// Keypad input function
unsigned char GetKeypadKey() {
    
    PORTC = 0xEF; // Enable col 4 with 0, disable others with 1?s
    asm("nop"); // add a delay to allow PORTC to stabilize before checking
    if (GetBit(PINC,0)==0) { return('1'); }
     4e6:	81 e3       	ldi	r24, 0x31	; 49
     4e8:	08 95       	ret
    if (GetBit(PINC,1)==0) { return('4'); }
     4ea:	84 e3       	ldi	r24, 0x34	; 52
     4ec:	08 95       	ret
    if (GetBit(PINC,2)==0) { return('7'); }
     4ee:	87 e3       	ldi	r24, 0x37	; 55
     4f0:	08 95       	ret
    if (GetBit(PINC,3)==0) { return('.'); }
     4f2:	8e e2       	ldi	r24, 0x2E	; 46
     4f4:	08 95       	ret
    
    // Check keys in col 2
    PORTC = 0xDF; // Enable col 5 with 0, disable others with 1?s
    asm("nop"); // add a delay to allow PORTC to stabilize before checking
    if (GetBit(PINC,0)==0) { return('2'); }
     4f6:	82 e3       	ldi	r24, 0x32	; 50
     4f8:	08 95       	ret
    if (GetBit(PINC,1)==0) { return('5'); }
     4fa:	85 e3       	ldi	r24, 0x35	; 53
     4fc:	08 95       	ret
    if (GetBit(PINC,2)==0) { return('8'); }
     4fe:	88 e3       	ldi	r24, 0x38	; 56
     500:	08 95       	ret
    if (GetBit(PINC,3)==0) { return('0'); }
     502:	80 e3       	ldi	r24, 0x30	; 48
     504:	08 95       	ret
    
    // Check keys in col 3
    PORTC = 0xBF; // Enable col 6 with 0, disable others with 1?s
    asm("nop"); // add a delay to allow PORTC to stabilize before checking
    // ... *****FINISH*****
    if (GetBit(PINC,0)==0) { return('3'); }
     506:	83 e3       	ldi	r24, 0x33	; 51
     508:	08 95       	ret
    if (GetBit(PINC,1)==0) { return('6'); }
     50a:	86 e3       	ldi	r24, 0x36	; 54
     50c:	08 95       	ret
    if (GetBit(PINC,2)==0) { return('9'); }
     50e:	89 e3       	ldi	r24, 0x39	; 57
     510:	08 95       	ret
    if (GetBit(PINC,3)==0) { return('#'); }
     512:	83 e2       	ldi	r24, 0x23	; 35
     514:	08 95       	ret
    
    // Check keys in col 4
    // ... *****FINISH*****
    PORTC = 0x7F;   // Enables column 7 with 0, disable all others with 1
    asm("nop"); // Adds delay to allow PORTC to stabilize before checking
    if (GetBit(PINC,0)==0) { return('A'); }
     516:	81 e4       	ldi	r24, 0x41	; 65
     518:	08 95       	ret
    if (GetBit(PINC,1)==0) { return('B'); }
     51a:	82 e4       	ldi	r24, 0x42	; 66
     51c:	08 95       	ret
    if (GetBit(PINC,2)==0) { return('C'); }
     51e:	83 e4       	ldi	r24, 0x43	; 67
     520:	08 95       	ret
    if (GetBit(PINC,3)==0) { return('D'); }
     522:	84 e4       	ldi	r24, 0x44	; 68
    
    return('\0'); // default value
    
}
     524:	08 95       	ret

00000526 <Lock>:
enum SettingStates{startS, pauseS, opt, codeSet, codeWrite, pricePick, priceSet, priceWrite, done};
enum Keypad500states{startK, wait, press, unpress};
enum LockStates{startL, pauseL, enterPin, checkPin};

int Lock(int state)
{
     526:	df 92       	push	r13
     528:	ef 92       	push	r14
     52a:	ff 92       	push	r15
     52c:	0f 93       	push	r16
     52e:	1f 93       	push	r17
     530:	cf 93       	push	r28
     532:	df 93       	push	r29
     534:	ec 01       	movw	r28, r24
	static unsigned char count;
	static unsigned char numbers[7] = {0};
	static int address;
	static unsigned char holder;
	
	switch(state)
     536:	81 30       	cpi	r24, 0x01	; 1
     538:	91 05       	cpc	r25, r1
     53a:	69 f1       	breq	.+90     	; 0x596 <Lock+0x70>
     53c:	1c f4       	brge	.+6      	; 0x544 <Lock+0x1e>
     53e:	89 2b       	or	r24, r25
     540:	49 f0       	breq	.+18     	; 0x554 <Lock+0x2e>
     542:	a0 c0       	rjmp	.+320    	; 0x684 <Lock+0x15e>
     544:	82 30       	cpi	r24, 0x02	; 2
     546:	91 05       	cpc	r25, r1
     548:	09 f4       	brne	.+2      	; 0x54c <Lock+0x26>
     54a:	3d c0       	rjmp	.+122    	; 0x5c6 <Lock+0xa0>
     54c:	03 97       	sbiw	r24, 0x03	; 3
     54e:	09 f4       	brne	.+2      	; 0x552 <Lock+0x2c>
     550:	8b c0       	rjmp	.+278    	; 0x668 <Lock+0x142>
     552:	98 c0       	rjmp	.+304    	; 0x684 <Lock+0x15e>
	{
		case startL:
		{
			pos = 3;
     554:	83 e0       	ldi	r24, 0x03	; 3
     556:	80 93 6f 02 	sts	0x026F, r24	; 0x80026f <pos>
			if(eeprom_read_byte((uint8_t *) 26) != '1')
     55a:	8a e1       	ldi	r24, 0x1A	; 26
     55c:	90 e0       	ldi	r25, 0x00	; 0
     55e:	0e 94 67 0f 	call	0x1ece	; 0x1ece <eeprom_read_byte>
     562:	81 33       	cpi	r24, 0x31	; 49
     564:	09 f4       	brne	.+2      	; 0x568 <Lock+0x42>
     566:	91 c0       	rjmp	.+290    	; 0x68a <Lock+0x164>
			{
				eeprom_write_byte((uint8_t *) 20, '0');
     568:	60 e3       	ldi	r22, 0x30	; 48
     56a:	84 e1       	ldi	r24, 0x14	; 20
     56c:	90 e0       	ldi	r25, 0x00	; 0
     56e:	0e 94 74 0f 	call	0x1ee8	; 0x1ee8 <eeprom_write_byte>
				eeprom_write_byte((uint8_t *) 21, '0');
     572:	60 e3       	ldi	r22, 0x30	; 48
     574:	85 e1       	ldi	r24, 0x15	; 21
     576:	90 e0       	ldi	r25, 0x00	; 0
     578:	0e 94 74 0f 	call	0x1ee8	; 0x1ee8 <eeprom_write_byte>
				eeprom_write_byte((uint8_t *) 22, '0');
     57c:	60 e3       	ldi	r22, 0x30	; 48
     57e:	86 e1       	ldi	r24, 0x16	; 22
     580:	90 e0       	ldi	r25, 0x00	; 0
     582:	0e 94 74 0f 	call	0x1ee8	; 0x1ee8 <eeprom_write_byte>
				eeprom_write_byte((uint8_t *) 23, '0');
     586:	60 e3       	ldi	r22, 0x30	; 48
     588:	87 e1       	ldi	r24, 0x17	; 23
     58a:	90 e0       	ldi	r25, 0x00	; 0
     58c:	0e 94 74 0f 	call	0x1ee8	; 0x1ee8 <eeprom_write_byte>
			}
			state = pauseL;
     590:	c1 e0       	ldi	r28, 0x01	; 1
     592:	d0 e0       	ldi	r29, 0x00	; 0
     594:	7c c0       	rjmp	.+248    	; 0x68e <Lock+0x168>
			break;
		}
		case pauseL:
		{
			count = 0;
     596:	10 92 68 02 	sts	0x0268, r1	; 0x800268 <count.2012>
			address = 20;
     59a:	84 e1       	ldi	r24, 0x14	; 20
     59c:	90 e0       	ldi	r25, 0x00	; 0
     59e:	90 93 67 02 	sts	0x0267, r25	; 0x800267 <address.2014+0x1>
     5a2:	80 93 66 02 	sts	0x0266, r24	; 0x800266 <address.2014>
			holder = 0;
     5a6:	10 92 65 02 	sts	0x0265, r1	; 0x800265 <holder.2015>
			clearArray(numbers, 7);
     5aa:	67 e0       	ldi	r22, 0x07	; 7
     5ac:	8e e5       	ldi	r24, 0x5E	; 94
     5ae:	92 e0       	ldi	r25, 0x02	; 2
     5b0:	62 df       	rcall	.-316    	; 0x476 <clearArray>
			if(pos == 3)
     5b2:	80 91 6f 02 	lds	r24, 0x026F	; 0x80026f <pos>
     5b6:	83 30       	cpi	r24, 0x03	; 3
     5b8:	09 f0       	breq	.+2      	; 0x5bc <Lock+0x96>
     5ba:	69 c0       	rjmp	.+210    	; 0x68e <Lock+0x168>
			{
				state = enterPin;
				LCD_DisplayString(1, "enter pin: ");
     5bc:	6a e2       	ldi	r22, 0x2A	; 42
     5be:	71 e0       	ldi	r23, 0x01	; 1
     5c0:	81 e0       	ldi	r24, 0x01	; 1
     5c2:	9b de       	rcall	.-714    	; 0x2fa <LCD_DisplayString>
     5c4:	57 c0       	rjmp	.+174    	; 0x674 <Lock+0x14e>
			}
			break;
		}
		case enterPin:
		{
			if(key == '#')
     5c6:	80 91 71 02 	lds	r24, 0x0271	; 0x800271 <key>
     5ca:	83 32       	cpi	r24, 0x23	; 35
     5cc:	09 f0       	breq	.+2      	; 0x5d0 <Lock+0xaa>
     5ce:	52 c0       	rjmp	.+164    	; 0x674 <Lock+0x14e>
		case enterPin:
		{
			key = GetKeypadKey();
			if(key != '\0')
			{
				LCD_WriteData(key);
     5d0:	10 c0       	rjmp	.+32     	; 0x5f2 <Lock+0xcc>
     5d2:	8a de       	rcall	.-748    	; 0x2e8 <LCD_WriteData>
				numbers[count] = key;
     5d4:	80 91 68 02 	lds	r24, 0x0268	; 0x800268 <count.2012>
     5d8:	e8 2f       	mov	r30, r24
     5da:	f0 e0       	ldi	r31, 0x00	; 0
     5dc:	e2 5a       	subi	r30, 0xA2	; 162
     5de:	fd 4f       	sbci	r31, 0xFD	; 253
     5e0:	90 91 71 02 	lds	r25, 0x0271	; 0x800271 <key>
     5e4:	90 83       	st	Z, r25
				count++;
     5e6:	8f 5f       	subi	r24, 0xFF	; 255
     5e8:	80 93 68 02 	sts	0x0268, r24	; 0x800268 <count.2012>
     5ec:	c2 e0       	ldi	r28, 0x02	; 2
     5ee:	d0 e0       	ldi	r29, 0x00	; 0
     5f0:	4e c0       	rjmp	.+156    	; 0x68e <Lock+0x168>
			}
			break;
		}
		case checkPin:
		{
			holder = 0;
     5f2:	10 92 65 02 	sts	0x0265, r1	; 0x800265 <holder.2015>
			address = 20;
     5f6:	84 e1       	ldi	r24, 0x14	; 20
     5f8:	90 e0       	ldi	r25, 0x00	; 0
     5fa:	90 93 67 02 	sts	0x0267, r25	; 0x800267 <address.2014+0x1>
     5fe:	80 93 66 02 	sts	0x0266, r24	; 0x800266 <address.2014>
			LCD_WriteData(' ');
     602:	80 e2       	ldi	r24, 0x20	; 32
     604:	71 de       	rcall	.-798    	; 0x2e8 <LCD_WriteData>
			for(int i = 0; i < count-1 ; i++)
     606:	e0 90 68 02 	lds	r14, 0x0268	; 0x800268 <count.2012>
     60a:	8e 2d       	mov	r24, r14
     60c:	90 e0       	ldi	r25, 0x00	; 0
     60e:	01 97       	sbiw	r24, 0x01	; 1
     610:	18 16       	cp	r1, r24
     612:	19 06       	cpc	r1, r25
     614:	1c f5       	brge	.+70     	; 0x65c <Lock+0x136>
     616:	0e e5       	ldi	r16, 0x5E	; 94
     618:	12 e0       	ldi	r17, 0x02	; 2
     61a:	8e 2d       	mov	r24, r14
     61c:	90 e0       	ldi	r25, 0x00	; 0
     61e:	9c 01       	movw	r18, r24
     620:	23 5a       	subi	r18, 0xA3	; 163
     622:	3d 4f       	sbci	r19, 0xFD	; 253
     624:	79 01       	movw	r14, r18
			{
				//LCD_WriteData(numbers[i]);
				//LCD_WriteData(eeprom_read_byte((uint8_t *) address));
				if(eeprom_read_byte((uint8_t *) address) != numbers[i])
				{
					holder = 1;
     626:	dd 24       	eor	r13, r13
     628:	d3 94       	inc	r13
			LCD_WriteData(' ');
			for(int i = 0; i < count-1 ; i++)
			{
				//LCD_WriteData(numbers[i]);
				//LCD_WriteData(eeprom_read_byte((uint8_t *) address));
				if(eeprom_read_byte((uint8_t *) address) != numbers[i])
     62a:	c0 91 66 02 	lds	r28, 0x0266	; 0x800266 <address.2014>
     62e:	d0 91 67 02 	lds	r29, 0x0267	; 0x800267 <address.2014+0x1>
     632:	ce 01       	movw	r24, r28
     634:	0e 94 67 0f 	call	0x1ece	; 0x1ece <eeprom_read_byte>
     638:	f8 01       	movw	r30, r16
     63a:	91 91       	ld	r25, Z+
     63c:	8f 01       	movw	r16, r30
     63e:	89 13       	cpse	r24, r25
				{
					holder = 1;
     640:	d0 92 65 02 	sts	0x0265, r13	; 0x800265 <holder.2015>
					//LCD_WriteData(numbers[i]);
				}
				address++;
     644:	21 96       	adiw	r28, 0x01	; 1
     646:	d0 93 67 02 	sts	0x0267, r29	; 0x800267 <address.2014+0x1>
     64a:	c0 93 66 02 	sts	0x0266, r28	; 0x800266 <address.2014>
		case checkPin:
		{
			holder = 0;
			address = 20;
			LCD_WriteData(' ');
			for(int i = 0; i < count-1 ; i++)
     64e:	0e 15       	cp	r16, r14
     650:	1f 05       	cpc	r17, r15
     652:	59 f7       	brne	.-42     	; 0x62a <Lock+0x104>
					//LCD_WriteData(numbers[i]);
				}
				address++;
			}
			
			if(holder == 0)
     654:	80 91 65 02 	lds	r24, 0x0265	; 0x800265 <holder.2015>
     658:	81 11       	cpse	r24, r1
     65a:	09 c0       	rjmp	.+18     	; 0x66e <Lock+0x148>
			{
				pos = 1;
     65c:	81 e0       	ldi	r24, 0x01	; 1
     65e:	80 93 6f 02 	sts	0x026F, r24	; 0x80026f <pos>
     662:	c3 e0       	ldi	r28, 0x03	; 3
     664:	d0 e0       	ldi	r29, 0x00	; 0
     666:	13 c0       	rjmp	.+38     	; 0x68e <Lock+0x168>
			}
			break;
		}
		case checkPin:
		{
			state = pauseL;
     668:	c1 e0       	ldi	r28, 0x01	; 1
     66a:	d0 e0       	ldi	r29, 0x00	; 0
     66c:	10 c0       	rjmp	.+32     	; 0x68e <Lock+0x168>
     66e:	c3 e0       	ldi	r28, 0x03	; 3
     670:	d0 e0       	ldi	r29, 0x00	; 0
		{
			break;
		}
		case enterPin:
		{
			key = GetKeypadKey();
     672:	0d c0       	rjmp	.+26     	; 0x68e <Lock+0x168>
     674:	0a df       	rcall	.-492    	; 0x48a <GetKeypadKey>
     676:	80 93 71 02 	sts	0x0271, r24	; 0x800271 <key>
			if(key != '\0')
     67a:	81 11       	cpse	r24, r1
     67c:	aa cf       	rjmp	.-172    	; 0x5d2 <Lock+0xac>
     67e:	c2 e0       	ldi	r28, 0x02	; 2
     680:	d0 e0       	ldi	r29, 0x00	; 0
     682:	05 c0       	rjmp	.+10     	; 0x68e <Lock+0x168>
			state = pauseL;
			break;
		}
		default:
		{
			state = startL;
     684:	c0 e0       	ldi	r28, 0x00	; 0
     686:	d0 e0       	ldi	r29, 0x00	; 0
     688:	02 c0       	rjmp	.+4      	; 0x68e <Lock+0x168>
				eeprom_write_byte((uint8_t *) 20, '0');
				eeprom_write_byte((uint8_t *) 21, '0');
				eeprom_write_byte((uint8_t *) 22, '0');
				eeprom_write_byte((uint8_t *) 23, '0');
			}
			state = pauseL;
     68a:	c1 e0       	ldi	r28, 0x01	; 1
     68c:	d0 e0       	ldi	r29, 0x00	; 0
		{
			break;
		}
	}
	return state;
}
     68e:	ce 01       	movw	r24, r28
     690:	df 91       	pop	r29
     692:	cf 91       	pop	r28
     694:	1f 91       	pop	r17
     696:	0f 91       	pop	r16
     698:	ff 90       	pop	r15
     69a:	ef 90       	pop	r14
     69c:	df 90       	pop	r13
     69e:	08 95       	ret

000006a0 <trans>:
	return state;
}


int trans(int state)
{
     6a0:	4f 92       	push	r4
     6a2:	5f 92       	push	r5
     6a4:	6f 92       	push	r6
     6a6:	7f 92       	push	r7
     6a8:	8f 92       	push	r8
     6aa:	9f 92       	push	r9
     6ac:	af 92       	push	r10
     6ae:	bf 92       	push	r11
     6b0:	ef 92       	push	r14
     6b2:	ff 92       	push	r15
     6b4:	0f 93       	push	r16
     6b6:	1f 93       	push	r17
     6b8:	cf 93       	push	r28
     6ba:	df 93       	push	r29
     6bc:	ec 01       	movw	r28, r24
	static unsigned char place;
	static unsigned char count;
	static unsigned char holder, holder2, holder3, num1, num2;
	static int decval, intval;
	
	switch (state)
     6be:	8a 30       	cpi	r24, 0x0A	; 10
     6c0:	91 05       	cpc	r25, r1
     6c2:	08 f0       	brcs	.+2      	; 0x6c6 <trans+0x26>
     6c4:	c9 c3       	rjmp	.+1938   	; 0xe58 <trans+0x7b8>
     6c6:	fc 01       	movw	r30, r24
     6c8:	e7 5a       	subi	r30, 0xA7	; 167
     6ca:	ff 4f       	sbci	r31, 0xFF	; 255
     6cc:	0c 94 5e 0f 	jmp	0x1ebc	; 0x1ebc <__tablejump2__>
			}
			break;
		}
		case picked:
		{
			state = picked1;
     6d0:	c5 e0       	ldi	r28, 0x05	; 5
     6d2:	d0 e0       	ldi	r29, 0x00	; 0
     6d4:	00 c4       	rjmp	.+2048   	; 0xed6 <trans+0x836>
			state = pauseT;
			break;
		}
		case pauseT:
		{
			totalMoney = 0;
     6d6:	10 92 5a 02 	sts	0x025A, r1	; 0x80025a <totalMoney.2050>
     6da:	10 92 5b 02 	sts	0x025B, r1	; 0x80025b <totalMoney.2050+0x1>
     6de:	10 92 5c 02 	sts	0x025C, r1	; 0x80025c <totalMoney.2050+0x2>
     6e2:	10 92 5d 02 	sts	0x025D, r1	; 0x80025d <totalMoney.2050+0x3>
			changeMoney = 0;
			holderMoney = 0;
     6e6:	10 92 56 02 	sts	0x0256, r1	; 0x800256 <holderMoney.2052>
     6ea:	10 92 57 02 	sts	0x0257, r1	; 0x800257 <holderMoney.2052+0x1>
     6ee:	10 92 58 02 	sts	0x0258, r1	; 0x800258 <holderMoney.2052+0x2>
     6f2:	10 92 59 02 	sts	0x0259, r1	; 0x800259 <holderMoney.2052+0x3>
			place = 0;
     6f6:	10 92 55 02 	sts	0x0255, r1	; 0x800255 <place.2054>
			count = 0;
     6fa:	10 92 54 02 	sts	0x0254, r1	; 0x800254 <count.2055>
			holder = 0;
			holder2 = 0;
     6fe:	10 92 53 02 	sts	0x0253, r1	; 0x800253 <holder2.2057>
			holder3 = 0;
			num1 = 0;
     702:	10 92 52 02 	sts	0x0252, r1	; 0x800252 <num1.2059>
			num2 = 0;
     706:	10 92 51 02 	sts	0x0251, r1	; 0x800251 <num2.2060>
			clearArray(number, 7);
     70a:	67 e0       	ldi	r22, 0x07	; 7
     70c:	8a e4       	ldi	r24, 0x4A	; 74
     70e:	92 e0       	ldi	r25, 0x02	; 2
     710:	b2 de       	rcall	.-668    	; 0x476 <clearArray>
			
			if(pos == 2)
     712:	80 91 6f 02 	lds	r24, 0x026F	; 0x80026f <pos>
     716:	82 30       	cpi	r24, 0x02	; 2
     718:	09 f0       	breq	.+2      	; 0x71c <trans+0x7c>
     71a:	dd c3       	rjmp	.+1978   	; 0xed6 <trans+0x836>
			state = options1;
			break;
		}
		case options1:
		{
			key = GetKeypadKey();
     71c:	aa c3       	rjmp	.+1876   	; 0xe72 <trans+0x7d2>
     71e:	b5 de       	rcall	.-662    	; 0x48a <GetKeypadKey>
     720:	80 93 71 02 	sts	0x0271, r24	; 0x800271 <key>
			if(key == 'A')
     724:	81 34       	cpi	r24, 0x41	; 65
     726:	c9 f4       	brne	.+50     	; 0x75a <trans+0xba>
			{
				state = picked;
				totalMoney += eeprom_read_float((float *)1);
     728:	81 e0       	ldi	r24, 0x01	; 1
     72a:	90 e0       	ldi	r25, 0x00	; 0
     72c:	0e 94 6f 0f 	call	0x1ede	; 0x1ede <eeprom_read_dword>
     730:	9b 01       	movw	r18, r22
     732:	ac 01       	movw	r20, r24
     734:	60 91 5a 02 	lds	r22, 0x025A	; 0x80025a <totalMoney.2050>
     738:	70 91 5b 02 	lds	r23, 0x025B	; 0x80025b <totalMoney.2050+0x1>
     73c:	80 91 5c 02 	lds	r24, 0x025C	; 0x80025c <totalMoney.2050+0x2>
     740:	90 91 5d 02 	lds	r25, 0x025D	; 0x80025d <totalMoney.2050+0x3>
     744:	0e 94 0b 0c 	call	0x1816	; 0x1816 <__addsf3>
     748:	60 93 5a 02 	sts	0x025A, r22	; 0x80025a <totalMoney.2050>
     74c:	70 93 5b 02 	sts	0x025B, r23	; 0x80025b <totalMoney.2050+0x1>
     750:	80 93 5c 02 	sts	0x025C, r24	; 0x80025c <totalMoney.2050+0x2>
     754:	90 93 5d 02 	sts	0x025D, r25	; 0x80025d <totalMoney.2050+0x3>
     758:	85 c3       	rjmp	.+1802   	; 0xe64 <trans+0x7c4>
			}
			else if(key == 'B')
     75a:	82 34       	cpi	r24, 0x42	; 66
     75c:	09 f0       	breq	.+2      	; 0x760 <trans+0xc0>
     75e:	bb c3       	rjmp	.+1910   	; 0xed6 <trans+0x836>
			{
				state = picked;
				totalMoney += eeprom_read_float((float *)10);
     760:	8a e0       	ldi	r24, 0x0A	; 10
     762:	90 e0       	ldi	r25, 0x00	; 0
     764:	0e 94 6f 0f 	call	0x1ede	; 0x1ede <eeprom_read_dword>
     768:	9b 01       	movw	r18, r22
     76a:	ac 01       	movw	r20, r24
     76c:	60 91 5a 02 	lds	r22, 0x025A	; 0x80025a <totalMoney.2050>
     770:	70 91 5b 02 	lds	r23, 0x025B	; 0x80025b <totalMoney.2050+0x1>
     774:	80 91 5c 02 	lds	r24, 0x025C	; 0x80025c <totalMoney.2050+0x2>
     778:	90 91 5d 02 	lds	r25, 0x025D	; 0x80025d <totalMoney.2050+0x3>
     77c:	0e 94 0b 0c 	call	0x1816	; 0x1816 <__addsf3>
     780:	60 93 5a 02 	sts	0x025A, r22	; 0x80025a <totalMoney.2050>
     784:	70 93 5b 02 	sts	0x025B, r23	; 0x80025b <totalMoney.2050+0x1>
     788:	80 93 5c 02 	sts	0x025C, r24	; 0x80025c <totalMoney.2050+0x2>
     78c:	90 93 5d 02 	sts	0x025D, r25	; 0x80025d <totalMoney.2050+0x3>
			state = picked1;
			break;
		}
		case picked1:
		{
			key = GetKeypadKey();
     790:	69 c3       	rjmp	.+1746   	; 0xe64 <trans+0x7c4>
     792:	7b de       	rcall	.-778    	; 0x48a <GetKeypadKey>
     794:	80 93 71 02 	sts	0x0271, r24	; 0x800271 <key>
			if(key == 'A')
     798:	81 34       	cpi	r24, 0x41	; 65
     79a:	09 f4       	brne	.+2      	; 0x79e <trans+0xfe>
     79c:	a7 c1       	rjmp	.+846    	; 0xaec <trans+0x44c>
			{
				state = payment;
			}
			else if(key == 'B')
     79e:	82 34       	cpi	r24, 0x42	; 66
     7a0:	09 f0       	breq	.+2      	; 0x7a4 <trans+0x104>
     7a2:	99 c3       	rjmp	.+1842   	; 0xed6 <trans+0x836>
     7a4:	66 c3       	rjmp	.+1740   	; 0xe72 <trans+0x7d2>
			state = payment1;
			break;
		}
		case payment1:
		{
			if(key == '#')
     7a6:	80 91 71 02 	lds	r24, 0x0271	; 0x800271 <key>
     7aa:	83 32       	cpi	r24, 0x23	; 35
     7ac:	09 f0       	breq	.+2      	; 0x7b0 <trans+0x110>
     7ae:	a5 c1       	rjmp	.+842    	; 0xafa <trans+0x45a>
		{
			state = change1;
		}
		case change1:
		{
			key = GetKeypadKey();
     7b0:	c8 c1       	rjmp	.+912    	; 0xb42 <trans+0x4a2>
     7b2:	6b de       	rcall	.-810    	; 0x48a <GetKeypadKey>
     7b4:	80 93 71 02 	sts	0x0271, r24	; 0x800271 <key>
			if(key == '#')
     7b8:	83 32       	cpi	r24, 0x23	; 35
     7ba:	09 f0       	breq	.+2      	; 0x7be <trans+0x11e>
     7bc:	50 c3       	rjmp	.+1696   	; 0xe5e <trans+0x7be>
			{
				pos = 3;
     7be:	83 e0       	ldi	r24, 0x03	; 3
     7c0:	80 93 6f 02 	sts	0x026F, r24	; 0x80026f <pos>
				state = pauseT;
     7c4:	c1 e0       	ldi	r28, 0x01	; 1
     7c6:	d0 e0       	ldi	r29, 0x00	; 0
     7c8:	86 c3       	rjmp	.+1804   	; 0xed6 <trans+0x836>
			num2 = (unsigned char)decval;
			
			
			if(num1 >= 99)
			{
				num1++;
     7ca:	83 94       	inc	r8
     7cc:	80 92 52 02 	sts	0x0252, r8	; 0x800252 <num1.2059>
			}
			place = findHowManyB4Dec(num1);
     7d0:	80 91 52 02 	lds	r24, 0x0252	; 0x800252 <num1.2059>
     7d4:	42 de       	rcall	.-892    	; 0x45a <findHowManyB4Dec>
     7d6:	80 93 55 02 	sts	0x0255, r24	; 0x800255 <place.2054>
			
			holder2 = place - 1;
     7da:	9f ef       	ldi	r25, 0xFF	; 255
     7dc:	98 0f       	add	r25, r24
     7de:	90 93 53 02 	sts	0x0253, r25	; 0x800253 <holder2.2057>
			
			unsigned char holder3 = 0;
			
			for(int i = 0; i < place; i++)
     7e2:	e8 2e       	mov	r14, r24
     7e4:	f1 2c       	mov	r15, r1
     7e6:	1e 14       	cp	r1, r14
     7e8:	1f 04       	cpc	r1, r15
     7ea:	0c f0       	brlt	.+2      	; 0x7ee <trans+0x14e>
     7ec:	4f c0       	rjmp	.+158    	; 0x88c <trans+0x1ec>
     7ee:	00 e0       	ldi	r16, 0x00	; 0
     7f0:	10 e0       	ldi	r17, 0x00	; 0
			{
				holder3 = num1/(pow(10,holder2));
     7f2:	60 91 52 02 	lds	r22, 0x0252	; 0x800252 <num1.2059>
     7f6:	70 e0       	ldi	r23, 0x00	; 0
     7f8:	80 e0       	ldi	r24, 0x00	; 0
     7fa:	90 e0       	ldi	r25, 0x00	; 0
     7fc:	0e 94 0a 0d 	call	0x1a14	; 0x1a14 <__floatsisf>
     800:	2b 01       	movw	r4, r22
     802:	3c 01       	movw	r6, r24
     804:	c0 91 53 02 	lds	r28, 0x0253	; 0x800253 <holder2.2057>
     808:	6c 2f       	mov	r22, r28
     80a:	70 e0       	ldi	r23, 0x00	; 0
     80c:	80 e0       	ldi	r24, 0x00	; 0
     80e:	90 e0       	ldi	r25, 0x00	; 0
     810:	0e 94 08 0d 	call	0x1a10	; 0x1a10 <__floatunsisf>
     814:	4b 01       	movw	r8, r22
     816:	5c 01       	movw	r10, r24
     818:	9b 01       	movw	r18, r22
     81a:	ac 01       	movw	r20, r24
     81c:	60 e0       	ldi	r22, 0x00	; 0
     81e:	70 e0       	ldi	r23, 0x00	; 0
     820:	80 e2       	ldi	r24, 0x20	; 32
     822:	91 e4       	ldi	r25, 0x41	; 65
     824:	0e 94 f9 0d 	call	0x1bf2	; 0x1bf2 <pow>
     828:	9b 01       	movw	r18, r22
     82a:	ac 01       	movw	r20, r24
     82c:	c3 01       	movw	r24, r6
     82e:	b2 01       	movw	r22, r4
     830:	0e 94 6f 0c 	call	0x18de	; 0x18de <__divsf3>
     834:	0e 94 dc 0c 	call	0x19b8	; 0x19b8 <__fixunssfsi>
     838:	d6 2f       	mov	r29, r22
				num1 = num1 - (holder3 * pow(10, holder2));
     83a:	a5 01       	movw	r20, r10
     83c:	94 01       	movw	r18, r8
     83e:	60 e0       	ldi	r22, 0x00	; 0
     840:	70 e0       	ldi	r23, 0x00	; 0
     842:	80 e2       	ldi	r24, 0x20	; 32
     844:	91 e4       	ldi	r25, 0x41	; 65
     846:	0e 94 f9 0d 	call	0x1bf2	; 0x1bf2 <pow>
     84a:	4b 01       	movw	r8, r22
     84c:	5c 01       	movw	r10, r24
     84e:	6d 2f       	mov	r22, r29
     850:	70 e0       	ldi	r23, 0x00	; 0
     852:	80 e0       	ldi	r24, 0x00	; 0
     854:	90 e0       	ldi	r25, 0x00	; 0
     856:	0e 94 0a 0d 	call	0x1a14	; 0x1a14 <__floatsisf>
     85a:	a5 01       	movw	r20, r10
     85c:	94 01       	movw	r18, r8
     85e:	0e 94 96 0d 	call	0x1b2c	; 0x1b2c <__mulsf3>
     862:	9b 01       	movw	r18, r22
     864:	ac 01       	movw	r20, r24
     866:	c3 01       	movw	r24, r6
     868:	b2 01       	movw	r22, r4
     86a:	d4 d7       	rcall	.+4008   	; 0x1814 <__subsf3>
     86c:	0e 94 dc 0c 	call	0x19b8	; 0x19b8 <__fixunssfsi>
				LCD_WriteData(changetoChar(holder3));
     870:	60 93 52 02 	sts	0x0252, r22	; 0x800252 <num1.2059>
     874:	8d 2f       	mov	r24, r29
     876:	d2 dd       	rcall	.-1116   	; 0x41c <changetoChar>
     878:	37 dd       	rcall	.-1426   	; 0x2e8 <LCD_WriteData>
				holder2--;
     87a:	c1 50       	subi	r28, 0x01	; 1
     87c:	c0 93 53 02 	sts	0x0253, r28	; 0x800253 <holder2.2057>
			
			holder2 = place - 1;
			
			unsigned char holder3 = 0;
			
			for(int i = 0; i < place; i++)
     880:	0f 5f       	subi	r16, 0xFF	; 255
     882:	1f 4f       	sbci	r17, 0xFF	; 255
     884:	0e 15       	cp	r16, r14
     886:	1f 05       	cpc	r17, r15
     888:	09 f0       	breq	.+2      	; 0x88c <trans+0x1ec>
				num1 = num1 - (holder3 * pow(10, holder2));
				LCD_WriteData(changetoChar(holder3));
				holder2--;
			}
			
			holder2 = 1;
     88a:	b3 cf       	rjmp	.-154    	; 0x7f2 <trans+0x152>
     88c:	81 e0       	ldi	r24, 0x01	; 1
     88e:	80 93 53 02 	sts	0x0253, r24	; 0x800253 <holder2.2057>
			LCD_WriteData('.');
     892:	8e e2       	ldi	r24, 0x2E	; 46
     894:	29 dd       	rcall	.-1454   	; 0x2e8 <LCD_WriteData>
     896:	02 e0       	ldi	r16, 0x02	; 2
     898:	10 e0       	ldi	r17, 0x00	; 0
			for(int i = 0; i < 2; i++)
			{
				holder3 = num2/(pow(10,holder2));
     89a:	60 91 51 02 	lds	r22, 0x0251	; 0x800251 <num2.2060>
     89e:	70 e0       	ldi	r23, 0x00	; 0
     8a0:	80 e0       	ldi	r24, 0x00	; 0
     8a2:	90 e0       	ldi	r25, 0x00	; 0
     8a4:	0e 94 0a 0d 	call	0x1a14	; 0x1a14 <__floatsisf>
     8a8:	4b 01       	movw	r8, r22
     8aa:	5c 01       	movw	r10, r24
     8ac:	c0 91 53 02 	lds	r28, 0x0253	; 0x800253 <holder2.2057>
     8b0:	6c 2f       	mov	r22, r28
     8b2:	70 e0       	ldi	r23, 0x00	; 0
     8b4:	80 e0       	ldi	r24, 0x00	; 0
     8b6:	90 e0       	ldi	r25, 0x00	; 0
     8b8:	0e 94 08 0d 	call	0x1a10	; 0x1a10 <__floatunsisf>
     8bc:	2b 01       	movw	r4, r22
     8be:	3c 01       	movw	r6, r24
     8c0:	9b 01       	movw	r18, r22
     8c2:	ac 01       	movw	r20, r24
     8c4:	60 e0       	ldi	r22, 0x00	; 0
     8c6:	70 e0       	ldi	r23, 0x00	; 0
     8c8:	80 e2       	ldi	r24, 0x20	; 32
     8ca:	91 e4       	ldi	r25, 0x41	; 65
     8cc:	0e 94 f9 0d 	call	0x1bf2	; 0x1bf2 <pow>
     8d0:	9b 01       	movw	r18, r22
     8d2:	ac 01       	movw	r20, r24
     8d4:	c5 01       	movw	r24, r10
     8d6:	b4 01       	movw	r22, r8
     8d8:	0e 94 6f 0c 	call	0x18de	; 0x18de <__divsf3>
     8dc:	0e 94 dc 0c 	call	0x19b8	; 0x19b8 <__fixunssfsi>
     8e0:	d6 2f       	mov	r29, r22
				num2 = num2 - (holder3 * pow(10, holder2));
     8e2:	a3 01       	movw	r20, r6
     8e4:	92 01       	movw	r18, r4
     8e6:	60 e0       	ldi	r22, 0x00	; 0
     8e8:	70 e0       	ldi	r23, 0x00	; 0
     8ea:	80 e2       	ldi	r24, 0x20	; 32
     8ec:	91 e4       	ldi	r25, 0x41	; 65
     8ee:	0e 94 f9 0d 	call	0x1bf2	; 0x1bf2 <pow>
     8f2:	2b 01       	movw	r4, r22
     8f4:	3c 01       	movw	r6, r24
     8f6:	6d 2f       	mov	r22, r29
     8f8:	70 e0       	ldi	r23, 0x00	; 0
     8fa:	80 e0       	ldi	r24, 0x00	; 0
     8fc:	90 e0       	ldi	r25, 0x00	; 0
     8fe:	0e 94 0a 0d 	call	0x1a14	; 0x1a14 <__floatsisf>
     902:	a3 01       	movw	r20, r6
     904:	92 01       	movw	r18, r4
     906:	0e 94 96 0d 	call	0x1b2c	; 0x1b2c <__mulsf3>
     90a:	9b 01       	movw	r18, r22
     90c:	ac 01       	movw	r20, r24
     90e:	c5 01       	movw	r24, r10
     910:	b4 01       	movw	r22, r8
     912:	80 d7       	rcall	.+3840   	; 0x1814 <__subsf3>
     914:	0e 94 dc 0c 	call	0x19b8	; 0x19b8 <__fixunssfsi>
				LCD_WriteData(changetoChar(holder3));
     918:	60 93 51 02 	sts	0x0251, r22	; 0x800251 <num2.2060>
     91c:	8d 2f       	mov	r24, r29
     91e:	7e dd       	rcall	.-1284   	; 0x41c <changetoChar>
     920:	e3 dc       	rcall	.-1594   	; 0x2e8 <LCD_WriteData>
				holder2--;
     922:	c1 50       	subi	r28, 0x01	; 1
     924:	c0 93 53 02 	sts	0x0253, r28	; 0x800253 <holder2.2057>
     928:	01 50       	subi	r16, 0x01	; 1
     92a:	11 09       	sbc	r17, r1
				holder2--;
			}
			
			holder2 = 1;
			LCD_WriteData('.');
			for(int i = 0; i < 2; i++)
     92c:	09 f0       	breq	.+2      	; 0x930 <trans+0x290>
     92e:	b5 cf       	rjmp	.-150    	; 0x89a <trans+0x1fa>
				LCD_WriteData(changetoChar(holder3));
				holder2--;
			}
			
			//writing $$ of B
			holderMoney = eeprom_read_float((float *)10);
     930:	8a e0       	ldi	r24, 0x0A	; 10
     932:	90 e0       	ldi	r25, 0x00	; 0
     934:	0e 94 6f 0f 	call	0x1ede	; 0x1ede <eeprom_read_dword>
     938:	2b 01       	movw	r4, r22
     93a:	3c 01       	movw	r6, r24
			
			intval = (int)holderMoney;
     93c:	0e 94 d7 0c 	call	0x19ae	; 0x19ae <__fixsfsi>
     940:	4b 01       	movw	r8, r22
			holderMoney = (holderMoney - (int)holderMoney) * 100;
     942:	5c 01       	movw	r10, r24
     944:	07 2e       	mov	r0, r23
     946:	00 0c       	add	r0, r0
     948:	88 0b       	sbc	r24, r24
     94a:	99 0b       	sbc	r25, r25
     94c:	0e 94 0a 0d 	call	0x1a14	; 0x1a14 <__floatsisf>
     950:	9b 01       	movw	r18, r22
     952:	ac 01       	movw	r20, r24
     954:	c3 01       	movw	r24, r6
     956:	b2 01       	movw	r22, r4
     958:	5d d7       	rcall	.+3770   	; 0x1814 <__subsf3>
     95a:	20 e0       	ldi	r18, 0x00	; 0
     95c:	30 e0       	ldi	r19, 0x00	; 0
     95e:	48 ec       	ldi	r20, 0xC8	; 200
     960:	52 e4       	ldi	r21, 0x42	; 66
     962:	0e 94 96 0d 	call	0x1b2c	; 0x1b2c <__mulsf3>
     966:	60 93 56 02 	sts	0x0256, r22	; 0x800256 <holderMoney.2052>
     96a:	70 93 57 02 	sts	0x0257, r23	; 0x800257 <holderMoney.2052+0x1>
     96e:	80 93 58 02 	sts	0x0258, r24	; 0x800258 <holderMoney.2052+0x2>
     972:	90 93 59 02 	sts	0x0259, r25	; 0x800259 <holderMoney.2052+0x3>
			decval = (int)holderMoney;
			
			num1 = (unsigned char)intval;
     976:	c8 2d       	mov	r28, r8
			num2 = (unsigned char)decval;
     978:	80 92 52 02 	sts	0x0252, r8	; 0x800252 <num1.2059>
     97c:	0e 94 d7 0c 	call	0x19ae	; 0x19ae <__fixsfsi>
			
			LCD_WriteData(' ');
     980:	60 93 51 02 	sts	0x0251, r22	; 0x800251 <num2.2060>
     984:	80 e2       	ldi	r24, 0x20	; 32
			LCD_WriteData(' ');
     986:	b0 dc       	rcall	.-1696   	; 0x2e8 <LCD_WriteData>
     988:	80 e2       	ldi	r24, 0x20	; 32
			LCD_WriteData(' ');
     98a:	ae dc       	rcall	.-1700   	; 0x2e8 <LCD_WriteData>
     98c:	80 e2       	ldi	r24, 0x20	; 32
     98e:	ac dc       	rcall	.-1704   	; 0x2e8 <LCD_WriteData>
			
			
			if(num1 >= 99)
     990:	c3 36       	cpi	r28, 0x63	; 99
     992:	18 f0       	brcs	.+6      	; 0x99a <trans+0x2fa>
			{
				num1++;
     994:	83 94       	inc	r8
     996:	80 92 52 02 	sts	0x0252, r8	; 0x800252 <num1.2059>
			}
			place = findHowManyB4Dec(num1);
     99a:	80 91 52 02 	lds	r24, 0x0252	; 0x800252 <num1.2059>
     99e:	5d dd       	rcall	.-1350   	; 0x45a <findHowManyB4Dec>
     9a0:	80 93 55 02 	sts	0x0255, r24	; 0x800255 <place.2054>
     9a4:	9f ef       	ldi	r25, 0xFF	; 255
			
			holder2 = place - 1;
     9a6:	98 0f       	add	r25, r24
     9a8:	90 93 53 02 	sts	0x0253, r25	; 0x800253 <holder2.2057>
     9ac:	e8 2e       	mov	r14, r24
			
			for(int i = 0; i < place; i++)
     9ae:	f1 2c       	mov	r15, r1
     9b0:	1e 14       	cp	r1, r14
     9b2:	1f 04       	cpc	r1, r15
     9b4:	0c f0       	brlt	.+2      	; 0x9b8 <trans+0x318>
     9b6:	4b c0       	rjmp	.+150    	; 0xa4e <trans+0x3ae>
     9b8:	00 e0       	ldi	r16, 0x00	; 0
     9ba:	10 e0       	ldi	r17, 0x00	; 0
     9bc:	60 91 52 02 	lds	r22, 0x0252	; 0x800252 <num1.2059>
			{
				holder3 = num1/(pow(10,holder2));
     9c0:	70 e0       	ldi	r23, 0x00	; 0
     9c2:	80 e0       	ldi	r24, 0x00	; 0
     9c4:	90 e0       	ldi	r25, 0x00	; 0
     9c6:	0e 94 0a 0d 	call	0x1a14	; 0x1a14 <__floatsisf>
     9ca:	2b 01       	movw	r4, r22
     9cc:	3c 01       	movw	r6, r24
     9ce:	c0 91 53 02 	lds	r28, 0x0253	; 0x800253 <holder2.2057>
     9d2:	6c 2f       	mov	r22, r28
     9d4:	70 e0       	ldi	r23, 0x00	; 0
     9d6:	80 e0       	ldi	r24, 0x00	; 0
     9d8:	90 e0       	ldi	r25, 0x00	; 0
     9da:	0e 94 08 0d 	call	0x1a10	; 0x1a10 <__floatunsisf>
     9de:	4b 01       	movw	r8, r22
     9e0:	5c 01       	movw	r10, r24
     9e2:	9b 01       	movw	r18, r22
     9e4:	ac 01       	movw	r20, r24
     9e6:	60 e0       	ldi	r22, 0x00	; 0
     9e8:	70 e0       	ldi	r23, 0x00	; 0
     9ea:	80 e2       	ldi	r24, 0x20	; 32
     9ec:	91 e4       	ldi	r25, 0x41	; 65
     9ee:	0e 94 f9 0d 	call	0x1bf2	; 0x1bf2 <pow>
     9f2:	9b 01       	movw	r18, r22
     9f4:	ac 01       	movw	r20, r24
     9f6:	c3 01       	movw	r24, r6
     9f8:	b2 01       	movw	r22, r4
     9fa:	71 d7       	rcall	.+3810   	; 0x18de <__divsf3>
     9fc:	dd d7       	rcall	.+4026   	; 0x19b8 <__fixunssfsi>
     9fe:	d6 2f       	mov	r29, r22
				num1 = num1 - (holder3 * pow(10, holder2));
     a00:	a5 01       	movw	r20, r10
     a02:	94 01       	movw	r18, r8
     a04:	60 e0       	ldi	r22, 0x00	; 0
     a06:	70 e0       	ldi	r23, 0x00	; 0
     a08:	80 e2       	ldi	r24, 0x20	; 32
     a0a:	91 e4       	ldi	r25, 0x41	; 65
     a0c:	0e 94 f9 0d 	call	0x1bf2	; 0x1bf2 <pow>
     a10:	4b 01       	movw	r8, r22
     a12:	5c 01       	movw	r10, r24
     a14:	6d 2f       	mov	r22, r29
     a16:	70 e0       	ldi	r23, 0x00	; 0
     a18:	80 e0       	ldi	r24, 0x00	; 0
     a1a:	90 e0       	ldi	r25, 0x00	; 0
     a1c:	fb d7       	rcall	.+4086   	; 0x1a14 <__floatsisf>
     a1e:	a5 01       	movw	r20, r10
     a20:	94 01       	movw	r18, r8
     a22:	0e 94 96 0d 	call	0x1b2c	; 0x1b2c <__mulsf3>
     a26:	9b 01       	movw	r18, r22
     a28:	ac 01       	movw	r20, r24
     a2a:	c3 01       	movw	r24, r6
     a2c:	b2 01       	movw	r22, r4
     a2e:	f2 d6       	rcall	.+3556   	; 0x1814 <__subsf3>
     a30:	c3 d7       	rcall	.+3974   	; 0x19b8 <__fixunssfsi>
     a32:	60 93 52 02 	sts	0x0252, r22	; 0x800252 <num1.2059>
				LCD_WriteData(changetoChar(holder3));
     a36:	8d 2f       	mov	r24, r29
     a38:	f1 dc       	rcall	.-1566   	; 0x41c <changetoChar>
				holder2--;
     a3a:	56 dc       	rcall	.-1876   	; 0x2e8 <LCD_WriteData>
     a3c:	c1 50       	subi	r28, 0x01	; 1
     a3e:	c0 93 53 02 	sts	0x0253, r28	; 0x800253 <holder2.2057>
			}
			place = findHowManyB4Dec(num1);
			
			holder2 = place - 1;
			
			for(int i = 0; i < place; i++)
     a42:	0f 5f       	subi	r16, 0xFF	; 255
     a44:	1f 4f       	sbci	r17, 0xFF	; 255
     a46:	e0 16       	cp	r14, r16
     a48:	f1 06       	cpc	r15, r17
				num1 = num1 - (holder3 * pow(10, holder2));
				LCD_WriteData(changetoChar(holder3));
				holder2--;
			}
			
			holder2 = 1;
     a4a:	09 f0       	breq	.+2      	; 0xa4e <trans+0x3ae>
     a4c:	b7 cf       	rjmp	.-146    	; 0x9bc <trans+0x31c>
     a4e:	81 e0       	ldi	r24, 0x01	; 1
			LCD_WriteData('.');
     a50:	80 93 53 02 	sts	0x0253, r24	; 0x800253 <holder2.2057>
     a54:	8e e2       	ldi	r24, 0x2E	; 46
     a56:	48 dc       	rcall	.-1904   	; 0x2e8 <LCD_WriteData>
     a58:	02 e0       	ldi	r16, 0x02	; 2
			for(int i = 0; i < 2; i++)
			{
				holder3 = num2/(pow(10,holder2));
     a5a:	10 e0       	ldi	r17, 0x00	; 0
     a5c:	60 91 51 02 	lds	r22, 0x0251	; 0x800251 <num2.2060>
     a60:	70 e0       	ldi	r23, 0x00	; 0
     a62:	80 e0       	ldi	r24, 0x00	; 0
     a64:	90 e0       	ldi	r25, 0x00	; 0
     a66:	d6 d7       	rcall	.+4012   	; 0x1a14 <__floatsisf>
     a68:	4b 01       	movw	r8, r22
     a6a:	5c 01       	movw	r10, r24
     a6c:	c0 91 53 02 	lds	r28, 0x0253	; 0x800253 <holder2.2057>
     a70:	6c 2f       	mov	r22, r28
     a72:	70 e0       	ldi	r23, 0x00	; 0
     a74:	80 e0       	ldi	r24, 0x00	; 0
     a76:	90 e0       	ldi	r25, 0x00	; 0
     a78:	cb d7       	rcall	.+3990   	; 0x1a10 <__floatunsisf>
     a7a:	2b 01       	movw	r4, r22
     a7c:	3c 01       	movw	r6, r24
     a7e:	9b 01       	movw	r18, r22
     a80:	ac 01       	movw	r20, r24
     a82:	60 e0       	ldi	r22, 0x00	; 0
     a84:	70 e0       	ldi	r23, 0x00	; 0
     a86:	80 e2       	ldi	r24, 0x20	; 32
     a88:	91 e4       	ldi	r25, 0x41	; 65
     a8a:	0e 94 f9 0d 	call	0x1bf2	; 0x1bf2 <pow>
     a8e:	9b 01       	movw	r18, r22
     a90:	ac 01       	movw	r20, r24
     a92:	c5 01       	movw	r24, r10
     a94:	b4 01       	movw	r22, r8
     a96:	23 d7       	rcall	.+3654   	; 0x18de <__divsf3>
     a98:	8f d7       	rcall	.+3870   	; 0x19b8 <__fixunssfsi>
				num2 = num2 - (holder3 * pow(10, holder2));
     a9a:	d6 2f       	mov	r29, r22
     a9c:	a3 01       	movw	r20, r6
     a9e:	92 01       	movw	r18, r4
     aa0:	60 e0       	ldi	r22, 0x00	; 0
     aa2:	70 e0       	ldi	r23, 0x00	; 0
     aa4:	80 e2       	ldi	r24, 0x20	; 32
     aa6:	91 e4       	ldi	r25, 0x41	; 65
     aa8:	0e 94 f9 0d 	call	0x1bf2	; 0x1bf2 <pow>
     aac:	2b 01       	movw	r4, r22
     aae:	3c 01       	movw	r6, r24
     ab0:	6d 2f       	mov	r22, r29
     ab2:	70 e0       	ldi	r23, 0x00	; 0
     ab4:	80 e0       	ldi	r24, 0x00	; 0
     ab6:	90 e0       	ldi	r25, 0x00	; 0
     ab8:	ad d7       	rcall	.+3930   	; 0x1a14 <__floatsisf>
     aba:	a3 01       	movw	r20, r6
     abc:	92 01       	movw	r18, r4
     abe:	0e 94 96 0d 	call	0x1b2c	; 0x1b2c <__mulsf3>
     ac2:	9b 01       	movw	r18, r22
     ac4:	ac 01       	movw	r20, r24
     ac6:	c5 01       	movw	r24, r10
     ac8:	b4 01       	movw	r22, r8
     aca:	a4 d6       	rcall	.+3400   	; 0x1814 <__subsf3>
     acc:	75 d7       	rcall	.+3818   	; 0x19b8 <__fixunssfsi>
				LCD_WriteData(changetoChar(holder3));
     ace:	60 93 51 02 	sts	0x0251, r22	; 0x800251 <num2.2060>
     ad2:	8d 2f       	mov	r24, r29
     ad4:	a3 dc       	rcall	.-1722   	; 0x41c <changetoChar>
				holder2--;
     ad6:	08 dc       	rcall	.-2032   	; 0x2e8 <LCD_WriteData>
     ad8:	c1 50       	subi	r28, 0x01	; 1
     ada:	c0 93 53 02 	sts	0x0253, r28	; 0x800253 <holder2.2057>
				holder2--;
			}
			
			holder2 = 1;
			LCD_WriteData('.');
			for(int i = 0; i < 2; i++)
     ade:	01 50       	subi	r16, 0x01	; 1
     ae0:	11 09       	sbc	r17, r1
				holder3 = num2/(pow(10,holder2));
				num2 = num2 - (holder3 * pow(10, holder2));
				LCD_WriteData(changetoChar(holder3));
				holder2--;
			}
			state = pricePick;
     ae2:	09 f0       	breq	.+2      	; 0xae6 <trans+0x446>
     ae4:	bb cf       	rjmp	.-138    	; 0xa5c <trans+0x3bc>
     ae6:	c5 e0       	ldi	r28, 0x05	; 5
		{
			break;
		}
		case payment:
		{
			LCD_DisplayString(1, "Enter Payment:   ");
     ae8:	d0 e0       	ldi	r29, 0x00	; 0
     aea:	f5 c1       	rjmp	.+1002   	; 0xed6 <trans+0x836>
     aec:	66 e3       	ldi	r22, 0x36	; 54
     aee:	71 e0       	ldi	r23, 0x01	; 1
     af0:	81 e0       	ldi	r24, 0x01	; 1
			break;
     af2:	03 dc       	rcall	.-2042   	; 0x2fa <LCD_DisplayString>
     af4:	c6 e0       	ldi	r28, 0x06	; 6
     af6:	d0 e0       	ldi	r29, 0x00	; 0
		}
		case payment1:
		{
			key = GetKeypadKey();
     af8:	ee c1       	rjmp	.+988    	; 0xed6 <trans+0x836>
     afa:	c7 dc       	rcall	.-1650   	; 0x48a <GetKeypadKey>
     afc:	80 93 71 02 	sts	0x0271, r24	; 0x800271 <key>
			if(key !=  '\0' && key != 'A' && key != 'B' && key!= 'C' && key != 'D')
     b00:	88 23       	and	r24, r24
     b02:	b9 f0       	breq	.+46     	; 0xb32 <trans+0x492>
     b04:	9f eb       	ldi	r25, 0xBF	; 191
     b06:	98 0f       	add	r25, r24
     b08:	94 30       	cpi	r25, 0x04	; 4
     b0a:	98 f0       	brcs	.+38     	; 0xb32 <trans+0x492>
			{
				LCD_WriteData(key);
     b0c:	ed db       	rcall	.-2086   	; 0x2e8 <LCD_WriteData>
     b0e:	90 91 71 02 	lds	r25, 0x0271	; 0x800271 <key>
				if (key == '.')
     b12:	9e 32       	cpi	r25, 0x2E	; 46
     b14:	21 f4       	brne	.+8      	; 0xb1e <trans+0x47e>
     b16:	80 91 54 02 	lds	r24, 0x0254	; 0x800254 <count.2055>
				{
					place = count;
     b1a:	80 93 55 02 	sts	0x0255, r24	; 0x800255 <place.2054>
				}
				number[count] = key;
     b1e:	80 91 54 02 	lds	r24, 0x0254	; 0x800254 <count.2055>
     b22:	e8 2f       	mov	r30, r24
     b24:	f0 e0       	ldi	r31, 0x00	; 0
     b26:	e6 5b       	subi	r30, 0xB6	; 182
     b28:	fd 4f       	sbci	r31, 0xFD	; 253
     b2a:	90 83       	st	Z, r25
				count++;
     b2c:	8f 5f       	subi	r24, 0xFF	; 255
     b2e:	80 93 54 02 	sts	0x0254, r24	; 0x800254 <count.2055>
			}
			holder2 = place - 1;
     b32:	80 91 55 02 	lds	r24, 0x0255	; 0x800255 <place.2054>
     b36:	81 50       	subi	r24, 0x01	; 1
     b38:	80 93 53 02 	sts	0x0253, r24	; 0x800253 <holder2.2057>
			holder = 0;
			break;
     b3c:	c7 e0       	ldi	r28, 0x07	; 7
		}
		case change:
		{
			LCD_DisplayString(1, "change:          ");
     b3e:	d0 e0       	ldi	r29, 0x00	; 0
     b40:	ca c1       	rjmp	.+916    	; 0xed6 <trans+0x836>
     b42:	68 e4       	ldi	r22, 0x48	; 72
     b44:	71 e0       	ldi	r23, 0x01	; 1
			for(int i = 0; i < place; i++)
     b46:	81 e0       	ldi	r24, 0x01	; 1
     b48:	d8 db       	rcall	.-2128   	; 0x2fa <LCD_DisplayString>
     b4a:	80 90 55 02 	lds	r8, 0x0255	; 0x800255 <place.2054>
     b4e:	e8 2c       	mov	r14, r8
     b50:	f1 2c       	mov	r15, r1
     b52:	1e 14       	cp	r1, r14
     b54:	1f 04       	cpc	r1, r15
     b56:	0c f0       	brlt	.+2      	; 0xb5a <trans+0x4ba>
     b58:	3e c0       	rjmp	.+124    	; 0xbd6 <trans+0x536>
     b5a:	0a e4       	ldi	r16, 0x4A	; 74
     b5c:	12 e0       	ldi	r17, 0x02	; 2
     b5e:	c7 01       	movw	r24, r14
     b60:	9c 01       	movw	r18, r24
			{
				LCD_WriteData(number[i]);
     b62:	26 5b       	subi	r18, 0xB6	; 182
     b64:	3d 4f       	sbci	r19, 0xFD	; 253
     b66:	59 01       	movw	r10, r18
     b68:	e8 01       	movw	r28, r16
     b6a:	f8 01       	movw	r30, r16
				holder = changetoInteger(number[i]);
     b6c:	81 91       	ld	r24, Z+
     b6e:	8f 01       	movw	r16, r30
     b70:	bb db       	rcall	.-2186   	; 0x2e8 <LCD_WriteData>
     b72:	88 81       	ld	r24, Y
				num1 = holder*pow(10, holder2) + num1;
     b74:	35 dc       	rcall	.-1942   	; 0x3e0 <changetoInteger>
     b76:	98 2e       	mov	r9, r24
     b78:	c0 91 53 02 	lds	r28, 0x0253	; 0x800253 <holder2.2057>
     b7c:	6c 2f       	mov	r22, r28
     b7e:	70 e0       	ldi	r23, 0x00	; 0
     b80:	80 e0       	ldi	r24, 0x00	; 0
     b82:	90 e0       	ldi	r25, 0x00	; 0
     b84:	45 d7       	rcall	.+3722   	; 0x1a10 <__floatunsisf>
     b86:	9b 01       	movw	r18, r22
     b88:	ac 01       	movw	r20, r24
     b8a:	60 e0       	ldi	r22, 0x00	; 0
     b8c:	70 e0       	ldi	r23, 0x00	; 0
     b8e:	80 e2       	ldi	r24, 0x20	; 32
     b90:	91 e4       	ldi	r25, 0x41	; 65
     b92:	0e 94 f9 0d 	call	0x1bf2	; 0x1bf2 <pow>
     b96:	2b 01       	movw	r4, r22
     b98:	3c 01       	movw	r6, r24
     b9a:	69 2d       	mov	r22, r9
     b9c:	70 e0       	ldi	r23, 0x00	; 0
     b9e:	80 e0       	ldi	r24, 0x00	; 0
     ba0:	90 e0       	ldi	r25, 0x00	; 0
     ba2:	38 d7       	rcall	.+3696   	; 0x1a14 <__floatsisf>
     ba4:	a3 01       	movw	r20, r6
     ba6:	92 01       	movw	r18, r4
     ba8:	c1 d7       	rcall	.+3970   	; 0x1b2c <__mulsf3>
     baa:	2b 01       	movw	r4, r22
     bac:	3c 01       	movw	r6, r24
     bae:	60 91 52 02 	lds	r22, 0x0252	; 0x800252 <num1.2059>
     bb2:	70 e0       	ldi	r23, 0x00	; 0
     bb4:	80 e0       	ldi	r24, 0x00	; 0
     bb6:	90 e0       	ldi	r25, 0x00	; 0
     bb8:	2d d7       	rcall	.+3674   	; 0x1a14 <__floatsisf>
     bba:	9b 01       	movw	r18, r22
     bbc:	ac 01       	movw	r20, r24
     bbe:	c3 01       	movw	r24, r6
     bc0:	b2 01       	movw	r22, r4
     bc2:	29 d6       	rcall	.+3154   	; 0x1816 <__addsf3>
     bc4:	f9 d6       	rcall	.+3570   	; 0x19b8 <__fixunssfsi>
     bc6:	60 93 52 02 	sts	0x0252, r22	; 0x800252 <num1.2059>
				holder2--;
     bca:	c1 50       	subi	r28, 0x01	; 1
     bcc:	c0 93 53 02 	sts	0x0253, r28	; 0x800253 <holder2.2057>
			}
			LCD_WriteData('.');
     bd0:	0a 15       	cp	r16, r10
     bd2:	1b 05       	cpc	r17, r11
     bd4:	49 f6       	brne	.-110    	; 0xb68 <trans+0x4c8>
			holder2 = 1;
     bd6:	8e e2       	ldi	r24, 0x2E	; 46
     bd8:	87 db       	rcall	.-2290   	; 0x2e8 <LCD_WriteData>
			for(int j = place+1; j < count-1; j++)
     bda:	81 e0       	ldi	r24, 0x01	; 1
     bdc:	80 93 53 02 	sts	0x0253, r24	; 0x800253 <holder2.2057>
     be0:	ff ef       	ldi	r31, 0xFF	; 255
     be2:	ef 1a       	sub	r14, r31
     be4:	ff 0a       	sbc	r15, r31
     be6:	a0 90 54 02 	lds	r10, 0x0254	; 0x800254 <count.2055>
     bea:	b1 2c       	mov	r11, r1
     bec:	21 e0       	ldi	r18, 0x01	; 1
     bee:	a2 1a       	sub	r10, r18
     bf0:	b1 08       	sbc	r11, r1
     bf2:	ea 14       	cp	r14, r10
     bf4:	fb 04       	cpc	r15, r11
     bf6:	0c f0       	brlt	.+2      	; 0xbfa <trans+0x55a>
     bf8:	3e c0       	rjmp	.+124    	; 0xc76 <trans+0x5d6>
			{	
				LCD_WriteData(number[j]);
     bfa:	08 2d       	mov	r16, r8
     bfc:	10 e0       	ldi	r17, 0x00	; 0
     bfe:	05 5b       	subi	r16, 0xB5	; 181
     c00:	1d 4f       	sbci	r17, 0xFD	; 253
     c02:	e8 01       	movw	r28, r16
				holder = changetoInteger(number[j]);
     c04:	f8 01       	movw	r30, r16
     c06:	81 91       	ld	r24, Z+
     c08:	8f 01       	movw	r16, r30
				num2 = holder*pow(10, holder2) + num2;
     c0a:	6e db       	rcall	.-2340   	; 0x2e8 <LCD_WriteData>
     c0c:	88 81       	ld	r24, Y
     c0e:	e8 db       	rcall	.-2096   	; 0x3e0 <changetoInteger>
     c10:	d8 2f       	mov	r29, r24
     c12:	c0 91 53 02 	lds	r28, 0x0253	; 0x800253 <holder2.2057>
     c16:	6c 2f       	mov	r22, r28
     c18:	70 e0       	ldi	r23, 0x00	; 0
     c1a:	80 e0       	ldi	r24, 0x00	; 0
     c1c:	90 e0       	ldi	r25, 0x00	; 0
     c1e:	f8 d6       	rcall	.+3568   	; 0x1a10 <__floatunsisf>
     c20:	9b 01       	movw	r18, r22
     c22:	ac 01       	movw	r20, r24
     c24:	60 e0       	ldi	r22, 0x00	; 0
     c26:	70 e0       	ldi	r23, 0x00	; 0
     c28:	80 e2       	ldi	r24, 0x20	; 32
     c2a:	91 e4       	ldi	r25, 0x41	; 65
     c2c:	e2 d7       	rcall	.+4036   	; 0x1bf2 <pow>
     c2e:	2b 01       	movw	r4, r22
     c30:	3c 01       	movw	r6, r24
     c32:	6d 2f       	mov	r22, r29
     c34:	70 e0       	ldi	r23, 0x00	; 0
     c36:	80 e0       	ldi	r24, 0x00	; 0
     c38:	90 e0       	ldi	r25, 0x00	; 0
     c3a:	ec d6       	rcall	.+3544   	; 0x1a14 <__floatsisf>
     c3c:	a3 01       	movw	r20, r6
     c3e:	92 01       	movw	r18, r4
     c40:	75 d7       	rcall	.+3818   	; 0x1b2c <__mulsf3>
     c42:	2b 01       	movw	r4, r22
     c44:	3c 01       	movw	r6, r24
     c46:	60 91 51 02 	lds	r22, 0x0251	; 0x800251 <num2.2060>
     c4a:	70 e0       	ldi	r23, 0x00	; 0
     c4c:	80 e0       	ldi	r24, 0x00	; 0
     c4e:	90 e0       	ldi	r25, 0x00	; 0
     c50:	e1 d6       	rcall	.+3522   	; 0x1a14 <__floatsisf>
     c52:	9b 01       	movw	r18, r22
     c54:	ac 01       	movw	r20, r24
     c56:	c3 01       	movw	r24, r6
     c58:	b2 01       	movw	r22, r4
     c5a:	dd d5       	rcall	.+3002   	; 0x1816 <__addsf3>
				holder2--;
     c5c:	ad d6       	rcall	.+3418   	; 0x19b8 <__fixunssfsi>
     c5e:	60 93 51 02 	sts	0x0251, r22	; 0x800251 <num2.2060>
				num1 = holder*pow(10, holder2) + num1;
				holder2--;
			}
			LCD_WriteData('.');
			holder2 = 1;
			for(int j = place+1; j < count-1; j++)
     c62:	c1 50       	subi	r28, 0x01	; 1
     c64:	c0 93 53 02 	sts	0x0253, r28	; 0x800253 <holder2.2057>
     c68:	ff ef       	ldi	r31, 0xFF	; 255
     c6a:	ef 1a       	sub	r14, r31
				num2 = holder*pow(10, holder2) + num2;
				holder2--;
			}
			
			holderMoney = (float)num1 + ((float)num2/100);
			changeMoney = holderMoney - totalMoney;
     c6c:	ff 0a       	sbc	r15, r31
     c6e:	ea 14       	cp	r14, r10
     c70:	fb 04       	cpc	r15, r11
     c72:	0c f4       	brge	.+2      	; 0xc76 <trans+0x5d6>
     c74:	c6 cf       	rjmp	.-116    	; 0xc02 <trans+0x562>
     c76:	60 91 51 02 	lds	r22, 0x0251	; 0x800251 <num2.2060>
     c7a:	70 e0       	ldi	r23, 0x00	; 0
     c7c:	80 e0       	ldi	r24, 0x00	; 0
     c7e:	90 e0       	ldi	r25, 0x00	; 0
     c80:	c7 d6       	rcall	.+3470   	; 0x1a10 <__floatunsisf>
     c82:	20 e0       	ldi	r18, 0x00	; 0
     c84:	30 e0       	ldi	r19, 0x00	; 0
     c86:	48 ec       	ldi	r20, 0xC8	; 200
     c88:	52 e4       	ldi	r21, 0x42	; 66
     c8a:	29 d6       	rcall	.+3154   	; 0x18de <__divsf3>
     c8c:	4b 01       	movw	r8, r22
     c8e:	5c 01       	movw	r10, r24
     c90:	60 91 52 02 	lds	r22, 0x0252	; 0x800252 <num1.2059>
     c94:	70 e0       	ldi	r23, 0x00	; 0
     c96:	80 e0       	ldi	r24, 0x00	; 0
     c98:	90 e0       	ldi	r25, 0x00	; 0
     c9a:	ba d6       	rcall	.+3444   	; 0x1a10 <__floatunsisf>
     c9c:	9b 01       	movw	r18, r22
     c9e:	ac 01       	movw	r20, r24
     ca0:	c5 01       	movw	r24, r10
     ca2:	b4 01       	movw	r22, r8
     ca4:	b8 d5       	rcall	.+2928   	; 0x1816 <__addsf3>
     ca6:	20 91 5a 02 	lds	r18, 0x025A	; 0x80025a <totalMoney.2050>
     caa:	30 91 5b 02 	lds	r19, 0x025B	; 0x80025b <totalMoney.2050+0x1>
     cae:	40 91 5c 02 	lds	r20, 0x025C	; 0x80025c <totalMoney.2050+0x2>
			holderMoney = (changeMoney - (int)changeMoney) * 100;
     cb2:	50 91 5d 02 	lds	r21, 0x025D	; 0x80025d <totalMoney.2050+0x3>
     cb6:	ae d5       	rcall	.+2908   	; 0x1814 <__subsf3>
     cb8:	2b 01       	movw	r4, r22
     cba:	3c 01       	movw	r6, r24
     cbc:	78 d6       	rcall	.+3312   	; 0x19ae <__fixsfsi>
     cbe:	4b 01       	movw	r8, r22
     cc0:	5c 01       	movw	r10, r24
     cc2:	07 2e       	mov	r0, r23
     cc4:	00 0c       	add	r0, r0
     cc6:	88 0b       	sbc	r24, r24
     cc8:	99 0b       	sbc	r25, r25
     cca:	a4 d6       	rcall	.+3400   	; 0x1a14 <__floatsisf>
     ccc:	9b 01       	movw	r18, r22
     cce:	ac 01       	movw	r20, r24
     cd0:	c3 01       	movw	r24, r6
     cd2:	b2 01       	movw	r22, r4
     cd4:	9f d5       	rcall	.+2878   	; 0x1814 <__subsf3>
     cd6:	20 e0       	ldi	r18, 0x00	; 0
     cd8:	30 e0       	ldi	r19, 0x00	; 0
     cda:	48 ec       	ldi	r20, 0xC8	; 200
     cdc:	52 e4       	ldi	r21, 0x42	; 66
     cde:	26 d7       	rcall	.+3660   	; 0x1b2c <__mulsf3>
     ce0:	60 93 56 02 	sts	0x0256, r22	; 0x800256 <holderMoney.2052>
     ce4:	70 93 57 02 	sts	0x0257, r23	; 0x800257 <holderMoney.2052+0x1>
			decval = (int)holderMoney;
			intval = (int)changeMoney;
			
			num1 = (unsigned char)intval;
     ce8:	80 93 58 02 	sts	0x0258, r24	; 0x800258 <holderMoney.2052+0x2>
     cec:	90 93 59 02 	sts	0x0259, r25	; 0x800259 <holderMoney.2052+0x3>
			num2 = (unsigned char)decval;
     cf0:	c8 2d       	mov	r28, r8
     cf2:	80 92 52 02 	sts	0x0252, r8	; 0x800252 <num1.2059>
			
			LCD_WriteData(' ');
     cf6:	5b d6       	rcall	.+3254   	; 0x19ae <__fixsfsi>
     cf8:	60 93 51 02 	sts	0x0251, r22	; 0x800251 <num2.2060>
			
			
			if(num1 >= 99)
			{
				num1++;
     cfc:	80 e2       	ldi	r24, 0x20	; 32
     cfe:	f4 da       	rcall	.-2584   	; 0x2e8 <LCD_WriteData>
			}
			place = findHowManyB4Dec(num1);
     d00:	c3 36       	cpi	r28, 0x63	; 99
     d02:	18 f0       	brcs	.+6      	; 0xd0a <trans+0x66a>
     d04:	83 94       	inc	r8
     d06:	80 92 52 02 	sts	0x0252, r8	; 0x800252 <num1.2059>
     d0a:	80 91 52 02 	lds	r24, 0x0252	; 0x800252 <num1.2059>
			
			holder2 = place - 1;
     d0e:	a5 db       	rcall	.-2230   	; 0x45a <findHowManyB4Dec>
     d10:	80 93 55 02 	sts	0x0255, r24	; 0x800255 <place.2054>
			
			unsigned char holder3 = 0;
			
			for(int i = 0; i < place; i++)
     d14:	9f ef       	ldi	r25, 0xFF	; 255
     d16:	98 0f       	add	r25, r24
     d18:	90 93 53 02 	sts	0x0253, r25	; 0x800253 <holder2.2057>
     d1c:	e8 2e       	mov	r14, r24
     d1e:	f1 2c       	mov	r15, r1
			{
				holder3 = num1/(pow(10,holder2));
     d20:	1e 14       	cp	r1, r14
     d22:	1f 04       	cpc	r1, r15
     d24:	0c f0       	brlt	.+2      	; 0xd28 <trans+0x688>
     d26:	46 c0       	rjmp	.+140    	; 0xdb4 <trans+0x714>
     d28:	00 e0       	ldi	r16, 0x00	; 0
     d2a:	10 e0       	ldi	r17, 0x00	; 0
     d2c:	60 91 52 02 	lds	r22, 0x0252	; 0x800252 <num1.2059>
     d30:	70 e0       	ldi	r23, 0x00	; 0
     d32:	80 e0       	ldi	r24, 0x00	; 0
     d34:	90 e0       	ldi	r25, 0x00	; 0
     d36:	6e d6       	rcall	.+3292   	; 0x1a14 <__floatsisf>
     d38:	2b 01       	movw	r4, r22
     d3a:	3c 01       	movw	r6, r24
     d3c:	c0 91 53 02 	lds	r28, 0x0253	; 0x800253 <holder2.2057>
     d40:	6c 2f       	mov	r22, r28
     d42:	70 e0       	ldi	r23, 0x00	; 0
     d44:	80 e0       	ldi	r24, 0x00	; 0
     d46:	90 e0       	ldi	r25, 0x00	; 0
     d48:	63 d6       	rcall	.+3270   	; 0x1a10 <__floatunsisf>
     d4a:	4b 01       	movw	r8, r22
     d4c:	5c 01       	movw	r10, r24
     d4e:	9b 01       	movw	r18, r22
     d50:	ac 01       	movw	r20, r24
     d52:	60 e0       	ldi	r22, 0x00	; 0
     d54:	70 e0       	ldi	r23, 0x00	; 0
     d56:	80 e2       	ldi	r24, 0x20	; 32
     d58:	91 e4       	ldi	r25, 0x41	; 65
     d5a:	4b d7       	rcall	.+3734   	; 0x1bf2 <pow>
     d5c:	9b 01       	movw	r18, r22
				num1 = num1 - (holder3 * pow(10, holder2));
     d5e:	ac 01       	movw	r20, r24
     d60:	c3 01       	movw	r24, r6
     d62:	b2 01       	movw	r22, r4
     d64:	bc d5       	rcall	.+2936   	; 0x18de <__divsf3>
     d66:	28 d6       	rcall	.+3152   	; 0x19b8 <__fixunssfsi>
     d68:	d6 2f       	mov	r29, r22
     d6a:	a5 01       	movw	r20, r10
     d6c:	94 01       	movw	r18, r8
     d6e:	60 e0       	ldi	r22, 0x00	; 0
     d70:	70 e0       	ldi	r23, 0x00	; 0
     d72:	80 e2       	ldi	r24, 0x20	; 32
     d74:	91 e4       	ldi	r25, 0x41	; 65
     d76:	3d d7       	rcall	.+3706   	; 0x1bf2 <pow>
     d78:	4b 01       	movw	r8, r22
     d7a:	5c 01       	movw	r10, r24
     d7c:	6d 2f       	mov	r22, r29
     d7e:	70 e0       	ldi	r23, 0x00	; 0
     d80:	80 e0       	ldi	r24, 0x00	; 0
     d82:	90 e0       	ldi	r25, 0x00	; 0
     d84:	47 d6       	rcall	.+3214   	; 0x1a14 <__floatsisf>
     d86:	a5 01       	movw	r20, r10
     d88:	94 01       	movw	r18, r8
     d8a:	d0 d6       	rcall	.+3488   	; 0x1b2c <__mulsf3>
     d8c:	9b 01       	movw	r18, r22
     d8e:	ac 01       	movw	r20, r24
     d90:	c3 01       	movw	r24, r6
				LCD_WriteData(changetoChar(holder3));
     d92:	b2 01       	movw	r22, r4
     d94:	3f d5       	rcall	.+2686   	; 0x1814 <__subsf3>
     d96:	10 d6       	rcall	.+3104   	; 0x19b8 <__fixunssfsi>
     d98:	60 93 52 02 	sts	0x0252, r22	; 0x800252 <num1.2059>
				holder2--;
     d9c:	8d 2f       	mov	r24, r29
			
			holder2 = place - 1;
			
			unsigned char holder3 = 0;
			
			for(int i = 0; i < place; i++)
     d9e:	3e db       	rcall	.-2436   	; 0x41c <changetoChar>
     da0:	a3 da       	rcall	.-2746   	; 0x2e8 <LCD_WriteData>
     da2:	c1 50       	subi	r28, 0x01	; 1
     da4:	c0 93 53 02 	sts	0x0253, r28	; 0x800253 <holder2.2057>
				num1 = num1 - (holder3 * pow(10, holder2));
				LCD_WriteData(changetoChar(holder3));
				holder2--;
			}
			
			holder2 = 1;
     da8:	0f 5f       	subi	r16, 0xFF	; 255
     daa:	1f 4f       	sbci	r17, 0xFF	; 255
     dac:	e0 16       	cp	r14, r16
			LCD_WriteData('.');
     dae:	f1 06       	cpc	r15, r17
     db0:	09 f0       	breq	.+2      	; 0xdb4 <trans+0x714>
     db2:	bc cf       	rjmp	.-136    	; 0xd2c <trans+0x68c>
			for(int i = 0; i < 2; i++)
			{
				holder3 = num2/(pow(10,holder2));
     db4:	81 e0       	ldi	r24, 0x01	; 1
     db6:	80 93 53 02 	sts	0x0253, r24	; 0x800253 <holder2.2057>
     dba:	8e e2       	ldi	r24, 0x2E	; 46
     dbc:	95 da       	rcall	.-2774   	; 0x2e8 <LCD_WriteData>
     dbe:	02 e0       	ldi	r16, 0x02	; 2
     dc0:	10 e0       	ldi	r17, 0x00	; 0
     dc2:	60 91 51 02 	lds	r22, 0x0251	; 0x800251 <num2.2060>
     dc6:	70 e0       	ldi	r23, 0x00	; 0
     dc8:	80 e0       	ldi	r24, 0x00	; 0
     dca:	90 e0       	ldi	r25, 0x00	; 0
     dcc:	23 d6       	rcall	.+3142   	; 0x1a14 <__floatsisf>
     dce:	4b 01       	movw	r8, r22
     dd0:	5c 01       	movw	r10, r24
     dd2:	c0 91 53 02 	lds	r28, 0x0253	; 0x800253 <holder2.2057>
     dd6:	6c 2f       	mov	r22, r28
     dd8:	70 e0       	ldi	r23, 0x00	; 0
     dda:	80 e0       	ldi	r24, 0x00	; 0
     ddc:	90 e0       	ldi	r25, 0x00	; 0
     dde:	18 d6       	rcall	.+3120   	; 0x1a10 <__floatunsisf>
     de0:	2b 01       	movw	r4, r22
     de2:	3c 01       	movw	r6, r24
     de4:	9b 01       	movw	r18, r22
     de6:	ac 01       	movw	r20, r24
     de8:	60 e0       	ldi	r22, 0x00	; 0
     dea:	70 e0       	ldi	r23, 0x00	; 0
     dec:	80 e2       	ldi	r24, 0x20	; 32
     dee:	91 e4       	ldi	r25, 0x41	; 65
     df0:	00 d7       	rcall	.+3584   	; 0x1bf2 <pow>
     df2:	9b 01       	movw	r18, r22
     df4:	ac 01       	movw	r20, r24
     df6:	c5 01       	movw	r24, r10
				num2 = num2 - (holder3 * pow(10, holder2));
     df8:	b4 01       	movw	r22, r8
     dfa:	71 d5       	rcall	.+2786   	; 0x18de <__divsf3>
     dfc:	dd d5       	rcall	.+3002   	; 0x19b8 <__fixunssfsi>
     dfe:	d6 2f       	mov	r29, r22
     e00:	a3 01       	movw	r20, r6
     e02:	92 01       	movw	r18, r4
     e04:	60 e0       	ldi	r22, 0x00	; 0
     e06:	70 e0       	ldi	r23, 0x00	; 0
     e08:	80 e2       	ldi	r24, 0x20	; 32
     e0a:	91 e4       	ldi	r25, 0x41	; 65
     e0c:	f2 d6       	rcall	.+3556   	; 0x1bf2 <pow>
     e0e:	2b 01       	movw	r4, r22
     e10:	3c 01       	movw	r6, r24
     e12:	6d 2f       	mov	r22, r29
     e14:	70 e0       	ldi	r23, 0x00	; 0
     e16:	80 e0       	ldi	r24, 0x00	; 0
     e18:	90 e0       	ldi	r25, 0x00	; 0
     e1a:	fc d5       	rcall	.+3064   	; 0x1a14 <__floatsisf>
     e1c:	a3 01       	movw	r20, r6
     e1e:	92 01       	movw	r18, r4
     e20:	85 d6       	rcall	.+3338   	; 0x1b2c <__mulsf3>
     e22:	9b 01       	movw	r18, r22
     e24:	ac 01       	movw	r20, r24
     e26:	c5 01       	movw	r24, r10
     e28:	b4 01       	movw	r22, r8
     e2a:	f4 d4       	rcall	.+2536   	; 0x1814 <__subsf3>
				LCD_WriteData(changetoChar(holder3));
     e2c:	c5 d5       	rcall	.+2954   	; 0x19b8 <__fixunssfsi>
     e2e:	60 93 51 02 	sts	0x0251, r22	; 0x800251 <num2.2060>
     e32:	8d 2f       	mov	r24, r29
				holder2--;
     e34:	f3 da       	rcall	.-2586   	; 0x41c <changetoChar>
     e36:	58 da       	rcall	.-2896   	; 0x2e8 <LCD_WriteData>
     e38:	c1 50       	subi	r28, 0x01	; 1
     e3a:	c0 93 53 02 	sts	0x0253, r28	; 0x800253 <holder2.2057>
				holder2--;
			}
			
			holder2 = 1;
			LCD_WriteData('.');
			for(int i = 0; i < 2; i++)
     e3e:	01 50       	subi	r16, 0x01	; 1
     e40:	11 09       	sbc	r17, r1
     e42:	09 f0       	breq	.+2      	; 0xe46 <trans+0x7a6>
     e44:	be cf       	rjmp	.-132    	; 0xdc2 <trans+0x722>
     e46:	c8 e0       	ldi	r28, 0x08	; 8
	
	switch (state)
	{
		case startT:
		{
			state = pauseT;
     e48:	d0 e0       	ldi	r29, 0x00	; 0
     e4a:	45 c0       	rjmp	.+138    	; 0xed6 <trans+0x836>
     e4c:	c1 e0       	ldi	r28, 0x01	; 1
			}
			break;
		}
		case options:
		{
			state = options1;
     e4e:	d0 e0       	ldi	r29, 0x00	; 0
     e50:	42 c0       	rjmp	.+132    	; 0xed6 <trans+0x836>
     e52:	c3 e0       	ldi	r28, 0x03	; 3
			}
			break;
		}
		default:
		{
			state = startT;
     e54:	d0 e0       	ldi	r29, 0x00	; 0
     e56:	3f c0       	rjmp	.+126    	; 0xed6 <trans+0x836>
     e58:	c0 e0       	ldi	r28, 0x00	; 0
     e5a:	d0 e0       	ldi	r29, 0x00	; 0
     e5c:	3c c0       	rjmp	.+120    	; 0xed6 <trans+0x836>
     e5e:	c9 e0       	ldi	r28, 0x09	; 9
		{
			break;
		}
		case picked:
		{
			LCD_DisplayString(1, "Done  |  AddItem A    |    B");
     e60:	d0 e0       	ldi	r29, 0x00	; 0
     e62:	39 c0       	rjmp	.+114    	; 0xed6 <trans+0x836>
     e64:	6a e5       	ldi	r22, 0x5A	; 90
     e66:	71 e0       	ldi	r23, 0x01	; 1
     e68:	81 e0       	ldi	r24, 0x01	; 1
			break;
     e6a:	47 da       	rcall	.-2930   	; 0x2fa <LCD_DisplayString>
     e6c:	c4 e0       	ldi	r28, 0x04	; 4
		default:
		{
			break;
		}
	}
	return state;
     e6e:	d0 e0       	ldi	r29, 0x00	; 0
		{
			break;
		}
		case options:
		{
			LCD_DisplayString(1, "A       B           ");
     e70:	32 c0       	rjmp	.+100    	; 0xed6 <trans+0x836>
     e72:	67 e7       	ldi	r22, 0x77	; 119
     e74:	71 e0       	ldi	r23, 0x01	; 1
     e76:	81 e0       	ldi	r24, 0x01	; 1
     e78:	40 da       	rcall	.-2944   	; 0x2fa <LCD_DisplayString>
			intval = (int)holderMoney;
     e7a:	40 90 56 02 	lds	r4, 0x0256	; 0x800256 <holderMoney.2052>
     e7e:	50 90 57 02 	lds	r5, 0x0257	; 0x800257 <holderMoney.2052+0x1>
     e82:	60 90 58 02 	lds	r6, 0x0258	; 0x800258 <holderMoney.2052+0x2>
     e86:	70 90 59 02 	lds	r7, 0x0259	; 0x800259 <holderMoney.2052+0x3>
     e8a:	c3 01       	movw	r24, r6
     e8c:	b2 01       	movw	r22, r4
     e8e:	8f d5       	rcall	.+2846   	; 0x19ae <__fixsfsi>
     e90:	4b 01       	movw	r8, r22
     e92:	5c 01       	movw	r10, r24
     e94:	07 2e       	mov	r0, r23
			holderMoney = (holderMoney - (int)holderMoney) * 100;
     e96:	00 0c       	add	r0, r0
     e98:	88 0b       	sbc	r24, r24
     e9a:	99 0b       	sbc	r25, r25
     e9c:	bb d5       	rcall	.+2934   	; 0x1a14 <__floatsisf>
     e9e:	9b 01       	movw	r18, r22
     ea0:	ac 01       	movw	r20, r24
     ea2:	c3 01       	movw	r24, r6
     ea4:	b2 01       	movw	r22, r4
     ea6:	b6 d4       	rcall	.+2412   	; 0x1814 <__subsf3>
     ea8:	20 e0       	ldi	r18, 0x00	; 0
     eaa:	30 e0       	ldi	r19, 0x00	; 0
     eac:	48 ec       	ldi	r20, 0xC8	; 200
     eae:	52 e4       	ldi	r21, 0x42	; 66
     eb0:	3d d6       	rcall	.+3194   	; 0x1b2c <__mulsf3>
     eb2:	60 93 56 02 	sts	0x0256, r22	; 0x800256 <holderMoney.2052>
     eb6:	70 93 57 02 	sts	0x0257, r23	; 0x800257 <holderMoney.2052+0x1>
     eba:	80 93 58 02 	sts	0x0258, r24	; 0x800258 <holderMoney.2052+0x2>
     ebe:	90 93 59 02 	sts	0x0259, r25	; 0x800259 <holderMoney.2052+0x3>
     ec2:	c8 2d       	mov	r28, r8
     ec4:	80 92 52 02 	sts	0x0252, r8	; 0x800252 <num1.2059>
     ec8:	72 d5       	rcall	.+2788   	; 0x19ae <__fixsfsi>
			decval = (int)holderMoney;
			
			num1 = (unsigned char)intval;
     eca:	60 93 51 02 	sts	0x0251, r22	; 0x800251 <num2.2060>
     ece:	c3 36       	cpi	r28, 0x63	; 99
			num2 = (unsigned char)decval;
     ed0:	08 f0       	brcs	.+2      	; 0xed4 <trans+0x834>
     ed2:	7b cc       	rjmp	.-1802   	; 0x7ca <trans+0x12a>
     ed4:	7d cc       	rjmp	.-1798   	; 0x7d0 <trans+0x130>
     ed6:	ce 01       	movw	r24, r28
			
			
			if(num1 >= 99)
     ed8:	df 91       	pop	r29
     eda:	cf 91       	pop	r28
     edc:	1f 91       	pop	r17
     ede:	0f 91       	pop	r16
		{
			break;
		}
	}
	return state;
}
     ee0:	ff 90       	pop	r15
     ee2:	ef 90       	pop	r14
     ee4:	bf 90       	pop	r11
     ee6:	af 90       	pop	r10
     ee8:	9f 90       	pop	r9
     eea:	8f 90       	pop	r8
     eec:	7f 90       	pop	r7
     eee:	6f 90       	pop	r6
     ef0:	5f 90       	pop	r5
     ef2:	4f 90       	pop	r4
     ef4:	08 95       	ret

00000ef6 <setting>:
     ef6:	4f 92       	push	r4
     ef8:	5f 92       	push	r5
     efa:	6f 92       	push	r6
     efc:	7f 92       	push	r7
     efe:	8f 92       	push	r8

int setting(int state)
{
     f00:	9f 92       	push	r9
     f02:	af 92       	push	r10
     f04:	bf 92       	push	r11
     f06:	cf 92       	push	r12
     f08:	df 92       	push	r13
     f0a:	ef 92       	push	r14
     f0c:	ff 92       	push	r15
     f0e:	0f 93       	push	r16
     f10:	1f 93       	push	r17
     f12:	cf 93       	push	r28
     f14:	df 93       	push	r29
     f16:	ec 01       	movw	r28, r24
	static unsigned char holder, holder2, holder3, num1, num2;
	static int decval, intval;
	static unsigned char number[7] = {0};

	
	switch(state)
     f18:	89 30       	cpi	r24, 0x09	; 9
     f1a:	91 05       	cpc	r25, r1
     f1c:	08 f0       	brcs	.+2      	; 0xf20 <setting+0x2a>
     f1e:	33 c3       	rjmp	.+1638   	; 0x1586 <setting+0x690>
     f20:	fc 01       	movw	r30, r24
     f22:	ed 59       	subi	r30, 0x9D	; 157
     f24:	ff 4f       	sbci	r31, 0xFF	; 255
     f26:	ca c7       	rjmp	.+3988   	; 0x1ebc <__tablejump2__>
			break;
		}
		case pauseS:
		{
			holderMoney = 0;
			place = 0;
     f28:	10 92 49 02 	sts	0x0249, r1	; 0x800249 <place.2133>
			count = 0;
     f2c:	10 92 48 02 	sts	0x0248, r1	; 0x800248 <count.2134>
			holder = 0;
			holder2 = 0;
     f30:	10 92 47 02 	sts	0x0247, r1	; 0x800247 <holder2.2137>
			whichAddr = 0;
     f34:	10 92 46 02 	sts	0x0246, r1	; 0x800246 <whichAddr.2135>
			holder3 = 0;
			num1 = 0;
     f38:	10 92 45 02 	sts	0x0245, r1	; 0x800245 <num1.2139>
			num2 = 0;
     f3c:	10 92 44 02 	sts	0x0244, r1	; 0x800244 <num2.2140>
			clearArray(number, 7);
     f40:	67 e0       	ldi	r22, 0x07	; 7
     f42:	8d e3       	ldi	r24, 0x3D	; 61
     f44:	92 e0       	ldi	r25, 0x02	; 2
     f46:	97 da       	rcall	.-2770   	; 0x476 <clearArray>
			if(pos == 4)
     f48:	80 91 6f 02 	lds	r24, 0x026F	; 0x80026f <pos>
     f4c:	84 30       	cpi	r24, 0x04	; 4
     f4e:	09 f0       	breq	.+2      	; 0xf52 <setting+0x5c>
     f50:	30 c3       	rjmp	.+1632   	; 0x15b2 <setting+0x6bc>
			{
				state = opt;
				LCD_DisplayString(1, "  A    |   B      code |   items");
     f52:	6c e8       	ldi	r22, 0x8C	; 140
     f54:	71 e0       	ldi	r23, 0x01	; 1
     f56:	81 e0       	ldi	r24, 0x01	; 1
     f58:	d0 d9       	rcall	.-3168   	; 0x2fa <LCD_DisplayString>
			num1 = 0;
			num2 = 0;
			clearArray(number, 7);
			if(pos == 4)
			{
				state = opt;
     f5a:	c2 e0       	ldi	r28, 0x02	; 2
     f5c:	d0 e0       	ldi	r29, 0x00	; 0
			}
			break;
		}
		case opt:
		{
			key = GetKeypadKey();
     f5e:	29 c3       	rjmp	.+1618   	; 0x15b2 <setting+0x6bc>
     f60:	94 da       	rcall	.-2776   	; 0x48a <GetKeypadKey>
     f62:	80 93 71 02 	sts	0x0271, r24	; 0x800271 <key>
			if (key == 'A')
     f66:	81 34       	cpi	r24, 0x41	; 65
     f68:	29 f4       	brne	.+10     	; 0xf74 <setting+0x7e>
			{
				state = codeSet;
				LCD_DisplayString(1, "enter old code:  ");
     f6a:	6d ea       	ldi	r22, 0xAD	; 173
     f6c:	71 e0       	ldi	r23, 0x01	; 1
     f6e:	81 e0       	ldi	r24, 0x01	; 1
     f70:	c4 d9       	rcall	.-3192   	; 0x2fa <LCD_DisplayString>
     f72:	0f c3       	rjmp	.+1566   	; 0x1592 <setting+0x69c>
			}
			else if(key == 'B')
     f74:	82 34       	cpi	r24, 0x42	; 66
     f76:	09 f0       	breq	.+2      	; 0xf7a <setting+0x84>
			{
				LCD_DisplayString(1, "A     B           ");
     f78:	1c c3       	rjmp	.+1592   	; 0x15b2 <setting+0x6bc>
     f7a:	6f eb       	ldi	r22, 0xBF	; 191
     f7c:	71 e0       	ldi	r23, 0x01	; 1
     f7e:	81 e0       	ldi	r24, 0x01	; 1
				
				//writing $$ of A
				holderMoney = eeprom_read_float((float *)1);
     f80:	bc d9       	rcall	.-3208   	; 0x2fa <LCD_DisplayString>
     f82:	81 e0       	ldi	r24, 0x01	; 1
     f84:	90 e0       	ldi	r25, 0x00	; 0
     f86:	ab d7       	rcall	.+3926   	; 0x1ede <eeprom_read_dword>
     f88:	4b 01       	movw	r8, r22
				
				intval = (int)holderMoney;
     f8a:	5c 01       	movw	r10, r24
     f8c:	10 d5       	rcall	.+2592   	; 0x19ae <__fixsfsi>
     f8e:	6b 01       	movw	r12, r22
     f90:	7c 01       	movw	r14, r24
     f92:	70 93 3c 02 	sts	0x023C, r23	; 0x80023c <intval.2142+0x1>
     f96:	60 93 3b 02 	sts	0x023B, r22	; 0x80023b <intval.2142>
				holderMoney = (holderMoney - (int)holderMoney) * 100;
				decval = (int)holderMoney;
				
				num1 = (unsigned char)intval;
     f9a:	c6 2f       	mov	r28, r22
     f9c:	60 93 45 02 	sts	0x0245, r22	; 0x800245 <num1.2139>
				num2 = (unsigned char)decval;
     fa0:	07 2e       	mov	r0, r23
     fa2:	00 0c       	add	r0, r0
     fa4:	88 0b       	sbc	r24, r24
     fa6:	99 0b       	sbc	r25, r25
     fa8:	35 d5       	rcall	.+2666   	; 0x1a14 <__floatsisf>
     faa:	9b 01       	movw	r18, r22
     fac:	ac 01       	movw	r20, r24
     fae:	c5 01       	movw	r24, r10
     fb0:	b4 01       	movw	r22, r8
     fb2:	30 d4       	rcall	.+2144   	; 0x1814 <__subsf3>
     fb4:	20 e0       	ldi	r18, 0x00	; 0
     fb6:	30 e0       	ldi	r19, 0x00	; 0
     fb8:	48 ec       	ldi	r20, 0xC8	; 200
     fba:	52 e4       	ldi	r21, 0x42	; 66
     fbc:	b7 d5       	rcall	.+2926   	; 0x1b2c <__mulsf3>
     fbe:	f7 d4       	rcall	.+2542   	; 0x19ae <__fixsfsi>
     fc0:	60 93 44 02 	sts	0x0244, r22	; 0x800244 <num2.2140>
								
				
				if(num1 >= 99)
     fc4:	c3 36       	cpi	r28, 0x63	; 99
     fc6:	18 f0       	brcs	.+6      	; 0xfce <setting+0xd8>
				{
					num1++;
     fc8:	c3 94       	inc	r12
     fca:	c0 92 45 02 	sts	0x0245, r12	; 0x800245 <num1.2139>
				}
				place = findHowManyB4Dec(num1);
     fce:	80 91 45 02 	lds	r24, 0x0245	; 0x800245 <num1.2139>
     fd2:	43 da       	rcall	.-2938   	; 0x45a <findHowManyB4Dec>
     fd4:	80 93 49 02 	sts	0x0249, r24	; 0x800249 <place.2133>
     fd8:	9f ef       	ldi	r25, 0xFF	; 255
				
				holder2 = place - 1;
     fda:	98 0f       	add	r25, r24
     fdc:	90 93 47 02 	sts	0x0247, r25	; 0x800247 <holder2.2137>
     fe0:	e8 2e       	mov	r14, r24
				
				unsigned char holder3 = 0;
				
				for(int i = 0; i < place; i++)
     fe2:	f1 2c       	mov	r15, r1
     fe4:	1e 14       	cp	r1, r14
     fe6:	1f 04       	cpc	r1, r15
     fe8:	0c f0       	brlt	.+2      	; 0xfec <setting+0xf6>
     fea:	46 c0       	rjmp	.+140    	; 0x1078 <setting+0x182>
     fec:	00 e0       	ldi	r16, 0x00	; 0
     fee:	10 e0       	ldi	r17, 0x00	; 0
				{
					holder3 = num1/(pow(10,holder2));
     ff0:	60 91 45 02 	lds	r22, 0x0245	; 0x800245 <num1.2139>
     ff4:	70 e0       	ldi	r23, 0x00	; 0
     ff6:	80 e0       	ldi	r24, 0x00	; 0
     ff8:	90 e0       	ldi	r25, 0x00	; 0
     ffa:	0c d5       	rcall	.+2584   	; 0x1a14 <__floatsisf>
     ffc:	2b 01       	movw	r4, r22
     ffe:	3c 01       	movw	r6, r24
    1000:	c0 91 47 02 	lds	r28, 0x0247	; 0x800247 <holder2.2137>
    1004:	6c 2f       	mov	r22, r28
    1006:	70 e0       	ldi	r23, 0x00	; 0
    1008:	80 e0       	ldi	r24, 0x00	; 0
    100a:	90 e0       	ldi	r25, 0x00	; 0
    100c:	01 d5       	rcall	.+2562   	; 0x1a10 <__floatunsisf>
    100e:	4b 01       	movw	r8, r22
    1010:	5c 01       	movw	r10, r24
    1012:	9b 01       	movw	r18, r22
    1014:	ac 01       	movw	r20, r24
    1016:	60 e0       	ldi	r22, 0x00	; 0
    1018:	70 e0       	ldi	r23, 0x00	; 0
    101a:	80 e2       	ldi	r24, 0x20	; 32
    101c:	91 e4       	ldi	r25, 0x41	; 65
    101e:	e9 d5       	rcall	.+3026   	; 0x1bf2 <pow>
    1020:	9b 01       	movw	r18, r22
    1022:	ac 01       	movw	r20, r24
    1024:	c3 01       	movw	r24, r6
    1026:	b2 01       	movw	r22, r4
    1028:	5a d4       	rcall	.+2228   	; 0x18de <__divsf3>
    102a:	c6 d4       	rcall	.+2444   	; 0x19b8 <__fixunssfsi>
    102c:	d6 2f       	mov	r29, r22
					num1 = num1 - (holder3 * pow(10, holder2));
    102e:	a5 01       	movw	r20, r10
    1030:	94 01       	movw	r18, r8
    1032:	60 e0       	ldi	r22, 0x00	; 0
    1034:	70 e0       	ldi	r23, 0x00	; 0
    1036:	80 e2       	ldi	r24, 0x20	; 32
    1038:	91 e4       	ldi	r25, 0x41	; 65
    103a:	db d5       	rcall	.+2998   	; 0x1bf2 <pow>
    103c:	4b 01       	movw	r8, r22
    103e:	5c 01       	movw	r10, r24
    1040:	6d 2f       	mov	r22, r29
    1042:	70 e0       	ldi	r23, 0x00	; 0
    1044:	80 e0       	ldi	r24, 0x00	; 0
    1046:	90 e0       	ldi	r25, 0x00	; 0
    1048:	e5 d4       	rcall	.+2506   	; 0x1a14 <__floatsisf>
    104a:	a5 01       	movw	r20, r10
    104c:	94 01       	movw	r18, r8
    104e:	6e d5       	rcall	.+2780   	; 0x1b2c <__mulsf3>
    1050:	9b 01       	movw	r18, r22
    1052:	ac 01       	movw	r20, r24
    1054:	c3 01       	movw	r24, r6
    1056:	b2 01       	movw	r22, r4
    1058:	dd d3       	rcall	.+1978   	; 0x1814 <__subsf3>
    105a:	ae d4       	rcall	.+2396   	; 0x19b8 <__fixunssfsi>
    105c:	60 93 45 02 	sts	0x0245, r22	; 0x800245 <num1.2139>
					LCD_WriteData(changetoChar(holder3));
    1060:	8d 2f       	mov	r24, r29
    1062:	dc d9       	rcall	.-3144   	; 0x41c <changetoChar>
    1064:	41 d9       	rcall	.-3454   	; 0x2e8 <LCD_WriteData>
    1066:	c1 50       	subi	r28, 0x01	; 1
					holder2--;
    1068:	c0 93 47 02 	sts	0x0247, r28	; 0x800247 <holder2.2137>
    106c:	0f 5f       	subi	r16, 0xFF	; 255
				
				holder2 = place - 1;
				
				unsigned char holder3 = 0;
				
				for(int i = 0; i < place; i++)
    106e:	1f 4f       	sbci	r17, 0xFF	; 255
    1070:	0e 15       	cp	r16, r14
    1072:	1f 05       	cpc	r17, r15
    1074:	09 f0       	breq	.+2      	; 0x1078 <setting+0x182>
    1076:	bc cf       	rjmp	.-136    	; 0xff0 <setting+0xfa>
					num1 = num1 - (holder3 * pow(10, holder2));
					LCD_WriteData(changetoChar(holder3));
					holder2--;
				}
				
				holder2 = 1;
    1078:	81 e0       	ldi	r24, 0x01	; 1
    107a:	80 93 47 02 	sts	0x0247, r24	; 0x800247 <holder2.2137>
				LCD_WriteData('.');
    107e:	8e e2       	ldi	r24, 0x2E	; 46
    1080:	33 d9       	rcall	.-3482   	; 0x2e8 <LCD_WriteData>
    1082:	02 e0       	ldi	r16, 0x02	; 2
    1084:	10 e0       	ldi	r17, 0x00	; 0
				for(int i = 0; i < 2; i++)
				{
					holder3 = num2/(pow(10,holder2));
    1086:	60 91 44 02 	lds	r22, 0x0244	; 0x800244 <num2.2140>
    108a:	70 e0       	ldi	r23, 0x00	; 0
    108c:	80 e0       	ldi	r24, 0x00	; 0
    108e:	90 e0       	ldi	r25, 0x00	; 0
    1090:	c1 d4       	rcall	.+2434   	; 0x1a14 <__floatsisf>
    1092:	6b 01       	movw	r12, r22
    1094:	7c 01       	movw	r14, r24
    1096:	c0 91 47 02 	lds	r28, 0x0247	; 0x800247 <holder2.2137>
    109a:	6c 2f       	mov	r22, r28
    109c:	70 e0       	ldi	r23, 0x00	; 0
    109e:	80 e0       	ldi	r24, 0x00	; 0
    10a0:	90 e0       	ldi	r25, 0x00	; 0
    10a2:	b6 d4       	rcall	.+2412   	; 0x1a10 <__floatunsisf>
    10a4:	4b 01       	movw	r8, r22
    10a6:	5c 01       	movw	r10, r24
    10a8:	9b 01       	movw	r18, r22
    10aa:	ac 01       	movw	r20, r24
    10ac:	60 e0       	ldi	r22, 0x00	; 0
    10ae:	70 e0       	ldi	r23, 0x00	; 0
    10b0:	80 e2       	ldi	r24, 0x20	; 32
    10b2:	91 e4       	ldi	r25, 0x41	; 65
    10b4:	9e d5       	rcall	.+2876   	; 0x1bf2 <pow>
    10b6:	9b 01       	movw	r18, r22
    10b8:	ac 01       	movw	r20, r24
    10ba:	c7 01       	movw	r24, r14
    10bc:	b6 01       	movw	r22, r12
    10be:	0f d4       	rcall	.+2078   	; 0x18de <__divsf3>
					num2 = num2 - (holder3 * pow(10, holder2));
    10c0:	7b d4       	rcall	.+2294   	; 0x19b8 <__fixunssfsi>
    10c2:	d6 2f       	mov	r29, r22
    10c4:	a5 01       	movw	r20, r10
    10c6:	94 01       	movw	r18, r8
    10c8:	60 e0       	ldi	r22, 0x00	; 0
    10ca:	70 e0       	ldi	r23, 0x00	; 0
    10cc:	80 e2       	ldi	r24, 0x20	; 32
    10ce:	91 e4       	ldi	r25, 0x41	; 65
    10d0:	90 d5       	rcall	.+2848   	; 0x1bf2 <pow>
    10d2:	4b 01       	movw	r8, r22
    10d4:	5c 01       	movw	r10, r24
    10d6:	6d 2f       	mov	r22, r29
    10d8:	70 e0       	ldi	r23, 0x00	; 0
    10da:	80 e0       	ldi	r24, 0x00	; 0
    10dc:	90 e0       	ldi	r25, 0x00	; 0
    10de:	9a d4       	rcall	.+2356   	; 0x1a14 <__floatsisf>
    10e0:	a5 01       	movw	r20, r10
    10e2:	94 01       	movw	r18, r8
    10e4:	23 d5       	rcall	.+2630   	; 0x1b2c <__mulsf3>
    10e6:	9b 01       	movw	r18, r22
    10e8:	ac 01       	movw	r20, r24
    10ea:	c7 01       	movw	r24, r14
    10ec:	b6 01       	movw	r22, r12
    10ee:	92 d3       	rcall	.+1828   	; 0x1814 <__subsf3>
    10f0:	63 d4       	rcall	.+2246   	; 0x19b8 <__fixunssfsi>
    10f2:	60 93 44 02 	sts	0x0244, r22	; 0x800244 <num2.2140>
					LCD_WriteData(changetoChar(holder3));
    10f6:	8d 2f       	mov	r24, r29
    10f8:	91 d9       	rcall	.-3294   	; 0x41c <changetoChar>
    10fa:	f6 d8       	rcall	.-3604   	; 0x2e8 <LCD_WriteData>
    10fc:	c1 50       	subi	r28, 0x01	; 1
					holder2--;
    10fe:	c0 93 47 02 	sts	0x0247, r28	; 0x800247 <holder2.2137>
    1102:	01 50       	subi	r16, 0x01	; 1
					holder2--;
				}
				
				holder2 = 1;
				LCD_WriteData('.');
				for(int i = 0; i < 2; i++)
    1104:	11 09       	sbc	r17, r1
					LCD_WriteData(changetoChar(holder3));
					holder2--;
				}
				
				//writing $$ of B
				holderMoney = eeprom_read_float((float *)10);
    1106:	09 f0       	breq	.+2      	; 0x110a <setting+0x214>
    1108:	be cf       	rjmp	.-132    	; 0x1086 <setting+0x190>
    110a:	8a e0       	ldi	r24, 0x0A	; 10
    110c:	90 e0       	ldi	r25, 0x00	; 0
				
				intval = (int)holderMoney;
    110e:	e7 d6       	rcall	.+3534   	; 0x1ede <eeprom_read_dword>
    1110:	4b 01       	movw	r8, r22
    1112:	5c 01       	movw	r10, r24
    1114:	4c d4       	rcall	.+2200   	; 0x19ae <__fixsfsi>
    1116:	6b 01       	movw	r12, r22
    1118:	7c 01       	movw	r14, r24
    111a:	70 93 3c 02 	sts	0x023C, r23	; 0x80023c <intval.2142+0x1>
				holderMoney = (holderMoney - (int)holderMoney) * 100;
				decval = (int)holderMoney;
				
				num1 = (unsigned char)intval;
    111e:	60 93 3b 02 	sts	0x023B, r22	; 0x80023b <intval.2142>
				num2 = (unsigned char)decval;
    1122:	c6 2f       	mov	r28, r22
    1124:	60 93 45 02 	sts	0x0245, r22	; 0x800245 <num1.2139>
    1128:	07 2e       	mov	r0, r23
    112a:	00 0c       	add	r0, r0
    112c:	88 0b       	sbc	r24, r24
    112e:	99 0b       	sbc	r25, r25
    1130:	71 d4       	rcall	.+2274   	; 0x1a14 <__floatsisf>
    1132:	9b 01       	movw	r18, r22
    1134:	ac 01       	movw	r20, r24
    1136:	c5 01       	movw	r24, r10
    1138:	b4 01       	movw	r22, r8
    113a:	6c d3       	rcall	.+1752   	; 0x1814 <__subsf3>
    113c:	20 e0       	ldi	r18, 0x00	; 0
    113e:	30 e0       	ldi	r19, 0x00	; 0
    1140:	48 ec       	ldi	r20, 0xC8	; 200
    1142:	52 e4       	ldi	r21, 0x42	; 66
    1144:	f3 d4       	rcall	.+2534   	; 0x1b2c <__mulsf3>
    1146:	33 d4       	rcall	.+2150   	; 0x19ae <__fixsfsi>
    1148:	60 93 44 02 	sts	0x0244, r22	; 0x800244 <num2.2140>
				
				LCD_WriteData(' ');
    114c:	80 e2       	ldi	r24, 0x20	; 32
    114e:	cc d8       	rcall	.-3688   	; 0x2e8 <LCD_WriteData>
				LCD_WriteData(' ');
    1150:	80 e2       	ldi	r24, 0x20	; 32
    1152:	ca d8       	rcall	.-3692   	; 0x2e8 <LCD_WriteData>
    1154:	80 e2       	ldi	r24, 0x20	; 32
				LCD_WriteData(' ');
    1156:	c8 d8       	rcall	.-3696   	; 0x2e8 <LCD_WriteData>
    1158:	c3 36       	cpi	r28, 0x63	; 99
    115a:	18 f0       	brcs	.+6      	; 0x1162 <setting+0x26c>
				
				
				if(num1 >= 99)
    115c:	c3 94       	inc	r12
				{
					num1++;
    115e:	c0 92 45 02 	sts	0x0245, r12	; 0x800245 <num1.2139>
    1162:	80 91 45 02 	lds	r24, 0x0245	; 0x800245 <num1.2139>
				}
				place = findHowManyB4Dec(num1);
    1166:	79 d9       	rcall	.-3342   	; 0x45a <findHowManyB4Dec>
    1168:	80 93 49 02 	sts	0x0249, r24	; 0x800249 <place.2133>
				
				holder2 = place - 1;
    116c:	9f ef       	ldi	r25, 0xFF	; 255
    116e:	98 0f       	add	r25, r24
    1170:	90 93 47 02 	sts	0x0247, r25	; 0x800247 <holder2.2137>
				
				for(int i = 0; i < place; i++)
    1174:	e8 2e       	mov	r14, r24
    1176:	f1 2c       	mov	r15, r1
    1178:	1e 14       	cp	r1, r14
    117a:	1f 04       	cpc	r1, r15
    117c:	0c f0       	brlt	.+2      	; 0x1180 <setting+0x28a>
    117e:	46 c0       	rjmp	.+140    	; 0x120c <setting+0x316>
				{
					holder3 = num1/(pow(10,holder2));
    1180:	00 e0       	ldi	r16, 0x00	; 0
    1182:	10 e0       	ldi	r17, 0x00	; 0
    1184:	60 91 45 02 	lds	r22, 0x0245	; 0x800245 <num1.2139>
    1188:	70 e0       	ldi	r23, 0x00	; 0
    118a:	80 e0       	ldi	r24, 0x00	; 0
    118c:	90 e0       	ldi	r25, 0x00	; 0
    118e:	42 d4       	rcall	.+2180   	; 0x1a14 <__floatsisf>
    1190:	2b 01       	movw	r4, r22
    1192:	3c 01       	movw	r6, r24
    1194:	c0 91 47 02 	lds	r28, 0x0247	; 0x800247 <holder2.2137>
    1198:	6c 2f       	mov	r22, r28
    119a:	70 e0       	ldi	r23, 0x00	; 0
    119c:	80 e0       	ldi	r24, 0x00	; 0
    119e:	90 e0       	ldi	r25, 0x00	; 0
    11a0:	37 d4       	rcall	.+2158   	; 0x1a10 <__floatunsisf>
    11a2:	4b 01       	movw	r8, r22
    11a4:	5c 01       	movw	r10, r24
    11a6:	9b 01       	movw	r18, r22
    11a8:	ac 01       	movw	r20, r24
    11aa:	60 e0       	ldi	r22, 0x00	; 0
    11ac:	70 e0       	ldi	r23, 0x00	; 0
    11ae:	80 e2       	ldi	r24, 0x20	; 32
    11b0:	91 e4       	ldi	r25, 0x41	; 65
    11b2:	1f d5       	rcall	.+2622   	; 0x1bf2 <pow>
    11b4:	9b 01       	movw	r18, r22
    11b6:	ac 01       	movw	r20, r24
    11b8:	c3 01       	movw	r24, r6
    11ba:	b2 01       	movw	r22, r4
					num1 = num1 - (holder3 * pow(10, holder2));
    11bc:	90 d3       	rcall	.+1824   	; 0x18de <__divsf3>
    11be:	fc d3       	rcall	.+2040   	; 0x19b8 <__fixunssfsi>
    11c0:	d6 2f       	mov	r29, r22
    11c2:	a5 01       	movw	r20, r10
    11c4:	94 01       	movw	r18, r8
    11c6:	60 e0       	ldi	r22, 0x00	; 0
    11c8:	70 e0       	ldi	r23, 0x00	; 0
    11ca:	80 e2       	ldi	r24, 0x20	; 32
    11cc:	91 e4       	ldi	r25, 0x41	; 65
    11ce:	11 d5       	rcall	.+2594   	; 0x1bf2 <pow>
    11d0:	4b 01       	movw	r8, r22
    11d2:	5c 01       	movw	r10, r24
    11d4:	6d 2f       	mov	r22, r29
    11d6:	70 e0       	ldi	r23, 0x00	; 0
    11d8:	80 e0       	ldi	r24, 0x00	; 0
    11da:	90 e0       	ldi	r25, 0x00	; 0
    11dc:	1b d4       	rcall	.+2102   	; 0x1a14 <__floatsisf>
    11de:	a5 01       	movw	r20, r10
    11e0:	94 01       	movw	r18, r8
    11e2:	a4 d4       	rcall	.+2376   	; 0x1b2c <__mulsf3>
    11e4:	9b 01       	movw	r18, r22
    11e6:	ac 01       	movw	r20, r24
    11e8:	c3 01       	movw	r24, r6
    11ea:	b2 01       	movw	r22, r4
    11ec:	13 d3       	rcall	.+1574   	; 0x1814 <__subsf3>
					LCD_WriteData(changetoChar(holder3));
    11ee:	e4 d3       	rcall	.+1992   	; 0x19b8 <__fixunssfsi>
    11f0:	60 93 45 02 	sts	0x0245, r22	; 0x800245 <num1.2139>
    11f4:	8d 2f       	mov	r24, r29
					holder2--;
    11f6:	12 d9       	rcall	.-3548   	; 0x41c <changetoChar>
    11f8:	77 d8       	rcall	.-3858   	; 0x2e8 <LCD_WriteData>
    11fa:	c1 50       	subi	r28, 0x01	; 1
				}
				place = findHowManyB4Dec(num1);
				
				holder2 = place - 1;
				
				for(int i = 0; i < place; i++)
    11fc:	c0 93 47 02 	sts	0x0247, r28	; 0x800247 <holder2.2137>
    1200:	0f 5f       	subi	r16, 0xFF	; 255
    1202:	1f 4f       	sbci	r17, 0xFF	; 255
					num1 = num1 - (holder3 * pow(10, holder2));
					LCD_WriteData(changetoChar(holder3));
					holder2--;
				}
				
				holder2 = 1;
    1204:	e0 16       	cp	r14, r16
    1206:	f1 06       	cpc	r15, r17
    1208:	09 f0       	breq	.+2      	; 0x120c <setting+0x316>
				LCD_WriteData('.');
    120a:	bc cf       	rjmp	.-136    	; 0x1184 <setting+0x28e>
    120c:	81 e0       	ldi	r24, 0x01	; 1
				for(int i = 0; i < 2; i++)
				{
					holder3 = num2/(pow(10,holder2));
    120e:	80 93 47 02 	sts	0x0247, r24	; 0x800247 <holder2.2137>
    1212:	8e e2       	ldi	r24, 0x2E	; 46
    1214:	69 d8       	rcall	.-3886   	; 0x2e8 <LCD_WriteData>
    1216:	02 e0       	ldi	r16, 0x02	; 2
    1218:	10 e0       	ldi	r17, 0x00	; 0
    121a:	60 91 44 02 	lds	r22, 0x0244	; 0x800244 <num2.2140>
    121e:	70 e0       	ldi	r23, 0x00	; 0
    1220:	80 e0       	ldi	r24, 0x00	; 0
    1222:	90 e0       	ldi	r25, 0x00	; 0
    1224:	f7 d3       	rcall	.+2030   	; 0x1a14 <__floatsisf>
    1226:	6b 01       	movw	r12, r22
    1228:	7c 01       	movw	r14, r24
    122a:	c0 91 47 02 	lds	r28, 0x0247	; 0x800247 <holder2.2137>
    122e:	6c 2f       	mov	r22, r28
    1230:	70 e0       	ldi	r23, 0x00	; 0
    1232:	80 e0       	ldi	r24, 0x00	; 0
    1234:	90 e0       	ldi	r25, 0x00	; 0
    1236:	ec d3       	rcall	.+2008   	; 0x1a10 <__floatunsisf>
    1238:	4b 01       	movw	r8, r22
    123a:	5c 01       	movw	r10, r24
    123c:	9b 01       	movw	r18, r22
    123e:	ac 01       	movw	r20, r24
    1240:	60 e0       	ldi	r22, 0x00	; 0
    1242:	70 e0       	ldi	r23, 0x00	; 0
    1244:	80 e2       	ldi	r24, 0x20	; 32
    1246:	91 e4       	ldi	r25, 0x41	; 65
    1248:	d4 d4       	rcall	.+2472   	; 0x1bf2 <pow>
    124a:	9b 01       	movw	r18, r22
    124c:	ac 01       	movw	r20, r24
    124e:	c7 01       	movw	r24, r14
					num2 = num2 - (holder3 * pow(10, holder2));
    1250:	b6 01       	movw	r22, r12
    1252:	45 d3       	rcall	.+1674   	; 0x18de <__divsf3>
    1254:	b1 d3       	rcall	.+1890   	; 0x19b8 <__fixunssfsi>
    1256:	d6 2f       	mov	r29, r22
    1258:	a5 01       	movw	r20, r10
    125a:	94 01       	movw	r18, r8
    125c:	60 e0       	ldi	r22, 0x00	; 0
    125e:	70 e0       	ldi	r23, 0x00	; 0
    1260:	80 e2       	ldi	r24, 0x20	; 32
    1262:	91 e4       	ldi	r25, 0x41	; 65
    1264:	c6 d4       	rcall	.+2444   	; 0x1bf2 <pow>
    1266:	4b 01       	movw	r8, r22
    1268:	5c 01       	movw	r10, r24
    126a:	6d 2f       	mov	r22, r29
    126c:	70 e0       	ldi	r23, 0x00	; 0
    126e:	80 e0       	ldi	r24, 0x00	; 0
    1270:	90 e0       	ldi	r25, 0x00	; 0
    1272:	d0 d3       	rcall	.+1952   	; 0x1a14 <__floatsisf>
    1274:	a5 01       	movw	r20, r10
    1276:	94 01       	movw	r18, r8
    1278:	59 d4       	rcall	.+2226   	; 0x1b2c <__mulsf3>
    127a:	9b 01       	movw	r18, r22
    127c:	ac 01       	movw	r20, r24
    127e:	c7 01       	movw	r24, r14
    1280:	b6 01       	movw	r22, r12
    1282:	c8 d2       	rcall	.+1424   	; 0x1814 <__subsf3>
    1284:	99 d3       	rcall	.+1842   	; 0x19b8 <__fixunssfsi>
    1286:	60 93 44 02 	sts	0x0244, r22	; 0x800244 <num2.2140>
					LCD_WriteData(changetoChar(holder3));
    128a:	8d 2f       	mov	r24, r29
    128c:	c7 d8       	rcall	.-3698   	; 0x41c <changetoChar>
    128e:	2c d8       	rcall	.-4008   	; 0x2e8 <LCD_WriteData>
    1290:	c1 50       	subi	r28, 0x01	; 1
					holder2--;
    1292:	c0 93 47 02 	sts	0x0247, r28	; 0x800247 <holder2.2137>
    1296:	01 50       	subi	r16, 0x01	; 1
    1298:	11 09       	sbc	r17, r1
    129a:	09 f0       	breq	.+2      	; 0x129e <setting+0x3a8>
					holder2--;
				}
				
				holder2 = 1;
				LCD_WriteData('.');
				for(int i = 0; i < 2; i++)
    129c:	be cf       	rjmp	.-132    	; 0x121a <setting+0x324>
    129e:	c5 e0       	ldi	r28, 0x05	; 5
					holder3 = num2/(pow(10,holder2));
					num2 = num2 - (holder3 * pow(10, holder2));
					LCD_WriteData(changetoChar(holder3));
					holder2--;
				}
				state = pricePick;
    12a0:	d0 e0       	ldi	r29, 0x00	; 0
    12a2:	87 c1       	rjmp	.+782    	; 0x15b2 <setting+0x6bc>
    12a4:	80 91 71 02 	lds	r24, 0x0271	; 0x800271 <key>
			}
			break;
		}
		case codeSet:
		{
			if (key == '#')
    12a8:	83 32       	cpi	r24, 0x23	; 35
    12aa:	09 f0       	breq	.+2      	; 0x12ae <setting+0x3b8>
    12ac:	72 c1       	rjmp	.+740    	; 0x1592 <setting+0x69c>
			{
				state = codeWrite;
				intval = 20;
    12ae:	84 e1       	ldi	r24, 0x14	; 20
    12b0:	90 e0       	ldi	r25, 0x00	; 0
    12b2:	90 93 3c 02 	sts	0x023C, r25	; 0x80023c <intval.2142+0x1>
    12b6:	80 93 3b 02 	sts	0x023B, r24	; 0x80023b <intval.2142>
			}
			break;
		}
		case codeWrite:
		{
			eeprom_write_byte(((uint8_t *) 26), '1');
    12ba:	61 e3       	ldi	r22, 0x31	; 49
    12bc:	8a e1       	ldi	r24, 0x1A	; 26
    12be:	90 e0       	ldi	r25, 0x00	; 0
    12c0:	13 d6       	rcall	.+3110   	; 0x1ee8 <eeprom_write_byte>
    12c2:	80 91 48 02 	lds	r24, 0x0248	; 0x800248 <count.2134>
			for(int i = 0; i < count ; i++)
    12c6:	81 11       	cpse	r24, r1
    12c8:	50 c0       	rjmp	.+160    	; 0x136a <setting+0x474>
    12ca:	c4 e0       	ldi	r28, 0x04	; 4
    12cc:	d0 e0       	ldi	r29, 0x00	; 0
    12ce:	71 c1       	rjmp	.+738    	; 0x15b2 <setting+0x6bc>
    12d0:	62 ed       	ldi	r22, 0xD2	; 210
			break;
		}
		case codeWrite:
		{
			state = done;
			LCD_DisplayString(1, "A        |   #  settings | menu");
    12d2:	71 e0       	ldi	r23, 0x01	; 1
    12d4:	81 e0       	ldi	r24, 0x01	; 1
    12d6:	11 d8       	rcall	.-4062   	; 0x2fa <LCD_DisplayString>
    12d8:	c8 e0       	ldi	r28, 0x08	; 8
    12da:	d0 e0       	ldi	r29, 0x00	; 0
			}
			break;
		}
		case codeWrite:
		{
			state = done;
    12dc:	6a c1       	rjmp	.+724    	; 0x15b2 <setting+0x6bc>
    12de:	d5 d8       	rcall	.-3670   	; 0x48a <GetKeypadKey>
			LCD_DisplayString(1, "A        |   #  settings | menu");
			break;
    12e0:	80 93 71 02 	sts	0x0271, r24	; 0x800271 <key>
		}
		case pricePick:
		{
			key = GetKeypadKey();
    12e4:	81 34       	cpi	r24, 0x41	; 65
    12e6:	39 f4       	brne	.+14     	; 0x12f6 <setting+0x400>
    12e8:	81 e0       	ldi	r24, 0x01	; 1
			if(key == 'A')
    12ea:	80 93 46 02 	sts	0x0246, r24	; 0x800246 <whichAddr.2135>
			{
				state = priceSet;
				whichAddr = 1;
    12ee:	62 ef       	ldi	r22, 0xF2	; 242
    12f0:	71 e0       	ldi	r23, 0x01	; 1
    12f2:	03 d8       	rcall	.-4090   	; 0x2fa <LCD_DisplayString>
				LCD_DisplayString(1, "Enter Price:     ");
    12f4:	57 c1       	rjmp	.+686    	; 0x15a4 <setting+0x6ae>
    12f6:	82 34       	cpi	r24, 0x42	; 66
    12f8:	09 f0       	breq	.+2      	; 0x12fc <setting+0x406>
    12fa:	5b c1       	rjmp	.+694    	; 0x15b2 <setting+0x6bc>
				//variable set to indicate A chosen;
			}
			else if(key == 'B')
    12fc:	82 e0       	ldi	r24, 0x02	; 2
    12fe:	80 93 46 02 	sts	0x0246, r24	; 0x800246 <whichAddr.2135>
			{
				state = priceSet;
				whichAddr = 2;
    1302:	62 ef       	ldi	r22, 0xF2	; 242
    1304:	71 e0       	ldi	r23, 0x01	; 1
    1306:	81 e0       	ldi	r24, 0x01	; 1
				LCD_DisplayString(1, "Enter Price:     ");
    1308:	0e 94 7d 01 	call	0x2fa	; 0x2fa <LCD_DisplayString>
    130c:	4b c1       	rjmp	.+662    	; 0x15a4 <setting+0x6ae>
    130e:	80 91 71 02 	lds	r24, 0x0271	; 0x800271 <key>
    1312:	83 32       	cpi	r24, 0x23	; 35
			}
			break;
		}
		case priceSet:
		{
			if (key == '#')
    1314:	09 f0       	breq	.+2      	; 0x1318 <setting+0x422>
    1316:	46 c1       	rjmp	.+652    	; 0x15a4 <setting+0x6ae>
    1318:	67 c0       	rjmp	.+206    	; 0x13e8 <setting+0x4f2>
    131a:	62 ed       	ldi	r22, 0xD2	; 210
    131c:	71 e0       	ldi	r23, 0x01	; 1
    131e:	81 e0       	ldi	r24, 0x01	; 1
			}
			break;
		}
		case priceWrite:
		{
			LCD_DisplayString(1, "A        |   #  settings | menu");	
    1320:	0e 94 7d 01 	call	0x2fa	; 0x2fa <LCD_DisplayString>
    1324:	c8 e0       	ldi	r28, 0x08	; 8
    1326:	d0 e0       	ldi	r29, 0x00	; 0
    1328:	44 c1       	rjmp	.+648    	; 0x15b2 <setting+0x6bc>
			state = done;
    132a:	af d8       	rcall	.-3746   	; 0x48a <GetKeypadKey>
    132c:	80 93 71 02 	sts	0x0271, r24	; 0x800271 <key>
			break;
		}
		case done:
		{
			key = GetKeypadKey();
    1330:	81 34       	cpi	r24, 0x41	; 65
    1332:	09 f4       	brne	.+2      	; 0x1336 <setting+0x440>
    1334:	2b c1       	rjmp	.+598    	; 0x158c <setting+0x696>
    1336:	83 32       	cpi	r24, 0x23	; 35
			if(key == 'A')
    1338:	09 f0       	breq	.+2      	; 0x133c <setting+0x446>
    133a:	3b c1       	rjmp	.+630    	; 0x15b2 <setting+0x6bc>
    133c:	83 e0       	ldi	r24, 0x03	; 3
			{
				state = opt;
			}
			else if(key == '#')
    133e:	80 93 6f 02 	sts	0x026F, r24	; 0x80026f <pos>
    1342:	c1 e0       	ldi	r28, 0x01	; 1
			{
				pos = 3;
    1344:	d0 e0       	ldi	r29, 0x00	; 0
    1346:	35 c1       	rjmp	.+618    	; 0x15b2 <setting+0x6bc>
    1348:	0e 94 74 01 	call	0x2e8	; 0x2e8 <LCD_WriteData>
				state = pauseS;
    134c:	80 91 48 02 	lds	r24, 0x0248	; 0x800248 <count.2134>
		case codeSet:
		{
			key = GetKeypadKey();
			if(key !=  '\0')
			{
				LCD_WriteData(key);
    1350:	e8 2f       	mov	r30, r24
    1352:	f0 e0       	ldi	r31, 0x00	; 0
				number[count] = key;
    1354:	e3 5c       	subi	r30, 0xC3	; 195
    1356:	fd 4f       	sbci	r31, 0xFD	; 253
    1358:	90 91 71 02 	lds	r25, 0x0271	; 0x800271 <key>
    135c:	90 83       	st	Z, r25
    135e:	8f 5f       	subi	r24, 0xFF	; 255
    1360:	80 93 48 02 	sts	0x0248, r24	; 0x800248 <count.2134>
    1364:	c3 e0       	ldi	r28, 0x03	; 3
				count++;
    1366:	d0 e0       	ldi	r29, 0x00	; 0
    1368:	24 c1       	rjmp	.+584    	; 0x15b2 <setting+0x6bc>
    136a:	0d e3       	ldi	r16, 0x3D	; 61
    136c:	12 e0       	ldi	r17, 0x02	; 2
    136e:	c0 e0       	ldi	r28, 0x00	; 0
    1370:	d0 e0       	ldi	r29, 0x00	; 0
    1372:	f8 01       	movw	r30, r16
    1374:	61 91       	ld	r22, Z+
			break;
		}
		case codeWrite:
		{
			eeprom_write_byte(((uint8_t *) 26), '1');
			for(int i = 0; i < count ; i++)
    1376:	8f 01       	movw	r16, r30
    1378:	80 91 3b 02 	lds	r24, 0x023B	; 0x80023b <intval.2142>
			{
				eeprom_write_byte(((uint8_t *) intval), number[i]);
    137c:	90 91 3c 02 	lds	r25, 0x023C	; 0x80023c <intval.2142+0x1>
    1380:	b3 d5       	rcall	.+2918   	; 0x1ee8 <eeprom_write_byte>
    1382:	80 91 3b 02 	lds	r24, 0x023B	; 0x80023b <intval.2142>
    1386:	90 91 3c 02 	lds	r25, 0x023C	; 0x80023c <intval.2142+0x1>
    138a:	01 96       	adiw	r24, 0x01	; 1
				//LCD_WriteData(eeprom_read_byte((uint8_t *) intval));
				intval++;
    138c:	90 93 3c 02 	sts	0x023C, r25	; 0x80023c <intval.2142+0x1>
    1390:	80 93 3b 02 	sts	0x023B, r24	; 0x80023b <intval.2142>
    1394:	21 96       	adiw	r28, 0x01	; 1
    1396:	80 91 48 02 	lds	r24, 0x0248	; 0x800248 <count.2134>
    139a:	90 e0       	ldi	r25, 0x00	; 0
    139c:	c8 17       	cp	r28, r24
			break;
		}
		case codeWrite:
		{
			eeprom_write_byte(((uint8_t *) 26), '1');
			for(int i = 0; i < count ; i++)
    139e:	d9 07       	cpc	r29, r25
    13a0:	44 f3       	brlt	.-48     	; 0x1372 <setting+0x47c>
    13a2:	c4 e0       	ldi	r28, 0x04	; 4
    13a4:	d0 e0       	ldi	r29, 0x00	; 0
    13a6:	05 c1       	rjmp	.+522    	; 0x15b2 <setting+0x6bc>
    13a8:	9f eb       	ldi	r25, 0xBF	; 191
    13aa:	98 0f       	add	r25, r24
    13ac:	94 30       	cpi	r25, 0x04	; 4
    13ae:	a0 f0       	brcs	.+40     	; 0x13d8 <setting+0x4e2>
    13b0:	0e 94 74 01 	call	0x2e8	; 0x2e8 <LCD_WriteData>
			break;
		}
		case priceSet:
		{
			key = GetKeypadKey();
			if(key !=  '\0' && key != 'A' && key != 'B' && key!= 'C' && key != 'D')
    13b4:	90 91 71 02 	lds	r25, 0x0271	; 0x800271 <key>
			{
				LCD_WriteData(key);
    13b8:	9e 32       	cpi	r25, 0x2E	; 46
    13ba:	21 f4       	brne	.+8      	; 0x13c4 <setting+0x4ce>
				if (key == '.')
    13bc:	80 91 48 02 	lds	r24, 0x0248	; 0x800248 <count.2134>
    13c0:	80 93 49 02 	sts	0x0249, r24	; 0x800249 <place.2133>
				{
					place = count;
    13c4:	80 91 48 02 	lds	r24, 0x0248	; 0x800248 <count.2134>
    13c8:	e8 2f       	mov	r30, r24
				}
				number[count] = key;
    13ca:	f0 e0       	ldi	r31, 0x00	; 0
    13cc:	e3 5c       	subi	r30, 0xC3	; 195
    13ce:	fd 4f       	sbci	r31, 0xFD	; 253
    13d0:	90 83       	st	Z, r25
    13d2:	8f 5f       	subi	r24, 0xFF	; 255
				count++;
    13d4:	80 93 48 02 	sts	0x0248, r24	; 0x800248 <count.2134>
    13d8:	80 91 49 02 	lds	r24, 0x0249	; 0x800249 <place.2133>
			}
			holder2 = place - 1;
    13dc:	81 50       	subi	r24, 0x01	; 1
    13de:	80 93 47 02 	sts	0x0247, r24	; 0x800247 <holder2.2137>
			holder = 0;
			break;
    13e2:	c6 e0       	ldi	r28, 0x06	; 6
    13e4:	d0 e0       	ldi	r29, 0x00	; 0
		}
		case priceWrite:
		{
			//write to corresponding eeprom price
			holder2 = place - 1;
    13e6:	e5 c0       	rjmp	.+458    	; 0x15b2 <setting+0x6bc>
    13e8:	e0 90 49 02 	lds	r14, 0x0249	; 0x800249 <place.2133>
    13ec:	8f ef       	ldi	r24, 0xFF	; 255
    13ee:	8e 0d       	add	r24, r14
    13f0:	80 93 47 02 	sts	0x0247, r24	; 0x800247 <holder2.2137>
			holder = 0;
			LCD_DisplayString(1, "change:          ");
    13f4:	68 e4       	ldi	r22, 0x48	; 72
    13f6:	71 e0       	ldi	r23, 0x01	; 1
    13f8:	81 e0       	ldi	r24, 0x01	; 1
    13fa:	0e 94 7d 01 	call	0x2fa	; 0x2fa <LCD_DisplayString>
			for(int i = 0; i < place; i++)
    13fe:	0e 2d       	mov	r16, r14
    1400:	10 e0       	ldi	r17, 0x00	; 0
    1402:	10 16       	cp	r1, r16
    1404:	11 06       	cpc	r1, r17
    1406:	0c f0       	brlt	.+2      	; 0x140a <setting+0x514>
    1408:	3f c0       	rjmp	.+126    	; 0x1488 <setting+0x592>
    140a:	0f 2e       	mov	r0, r31
    140c:	fd e3       	ldi	r31, 0x3D	; 61
    140e:	cf 2e       	mov	r12, r31
    1410:	f2 e0       	ldi	r31, 0x02	; 2
    1412:	df 2e       	mov	r13, r31
    1414:	f0 2d       	mov	r31, r0
    1416:	c8 01       	movw	r24, r16
    1418:	9c 01       	movw	r18, r24
    141a:	23 5c       	subi	r18, 0xC3	; 195
    141c:	3d 4f       	sbci	r19, 0xFD	; 253
			{
				//LCD_WriteData(number[i]);
				holder = changetoInteger(number[i]);
    141e:	59 01       	movw	r10, r18
    1420:	f6 01       	movw	r30, r12
    1422:	81 91       	ld	r24, Z+
    1424:	6f 01       	movw	r12, r30
    1426:	0e 94 f0 01 	call	0x3e0	; 0x3e0 <changetoInteger>
				num1 = holder*pow(10, holder2) + num1;
    142a:	d8 2f       	mov	r29, r24
    142c:	c0 91 47 02 	lds	r28, 0x0247	; 0x800247 <holder2.2137>
    1430:	6c 2f       	mov	r22, r28
    1432:	70 e0       	ldi	r23, 0x00	; 0
    1434:	80 e0       	ldi	r24, 0x00	; 0
    1436:	90 e0       	ldi	r25, 0x00	; 0
    1438:	eb d2       	rcall	.+1494   	; 0x1a10 <__floatunsisf>
    143a:	9b 01       	movw	r18, r22
    143c:	ac 01       	movw	r20, r24
    143e:	60 e0       	ldi	r22, 0x00	; 0
    1440:	70 e0       	ldi	r23, 0x00	; 0
    1442:	80 e2       	ldi	r24, 0x20	; 32
    1444:	91 e4       	ldi	r25, 0x41	; 65
    1446:	d5 d3       	rcall	.+1962   	; 0x1bf2 <pow>
    1448:	2b 01       	movw	r4, r22
    144a:	3c 01       	movw	r6, r24
    144c:	6d 2f       	mov	r22, r29
    144e:	70 e0       	ldi	r23, 0x00	; 0
    1450:	80 e0       	ldi	r24, 0x00	; 0
    1452:	90 e0       	ldi	r25, 0x00	; 0
    1454:	df d2       	rcall	.+1470   	; 0x1a14 <__floatsisf>
    1456:	a3 01       	movw	r20, r6
    1458:	92 01       	movw	r18, r4
    145a:	68 d3       	rcall	.+1744   	; 0x1b2c <__mulsf3>
    145c:	2b 01       	movw	r4, r22
    145e:	3c 01       	movw	r6, r24
    1460:	60 91 45 02 	lds	r22, 0x0245	; 0x800245 <num1.2139>
    1464:	70 e0       	ldi	r23, 0x00	; 0
    1466:	80 e0       	ldi	r24, 0x00	; 0
    1468:	90 e0       	ldi	r25, 0x00	; 0
    146a:	d4 d2       	rcall	.+1448   	; 0x1a14 <__floatsisf>
    146c:	9b 01       	movw	r18, r22
    146e:	ac 01       	movw	r20, r24
    1470:	c3 01       	movw	r24, r6
    1472:	b2 01       	movw	r22, r4
    1474:	d0 d1       	rcall	.+928    	; 0x1816 <__addsf3>
    1476:	a0 d2       	rcall	.+1344   	; 0x19b8 <__fixunssfsi>
    1478:	60 93 45 02 	sts	0x0245, r22	; 0x800245 <num1.2139>
				holder2--;
    147c:	c1 50       	subi	r28, 0x01	; 1
    147e:	c0 93 47 02 	sts	0x0247, r28	; 0x800247 <holder2.2137>
		{
			//write to corresponding eeprom price
			holder2 = place - 1;
			holder = 0;
			LCD_DisplayString(1, "change:          ");
			for(int i = 0; i < place; i++)
    1482:	ca 14       	cp	r12, r10
    1484:	db 04       	cpc	r13, r11
				holder = changetoInteger(number[i]);
				num1 = holder*pow(10, holder2) + num1;
				holder2--;
			}
			//LCD_WriteData('.');
			holder2 = 1;
    1486:	61 f6       	brne	.-104    	; 0x1420 <setting+0x52a>
    1488:	81 e0       	ldi	r24, 0x01	; 1
			for(int j = place+1; j < count-1; j++)
    148a:	80 93 47 02 	sts	0x0247, r24	; 0x800247 <holder2.2137>
    148e:	0f 5f       	subi	r16, 0xFF	; 255
    1490:	1f 4f       	sbci	r17, 0xFF	; 255
    1492:	c0 90 48 02 	lds	r12, 0x0248	; 0x800248 <count.2134>
    1496:	d1 2c       	mov	r13, r1
    1498:	f1 e0       	ldi	r31, 0x01	; 1
    149a:	cf 1a       	sub	r12, r31
    149c:	d1 08       	sbc	r13, r1
    149e:	0c 15       	cp	r16, r12
    14a0:	1d 05       	cpc	r17, r13
    14a2:	0c f0       	brlt	.+2      	; 0x14a6 <setting+0x5b0>
    14a4:	3c c0       	rjmp	.+120    	; 0x151e <setting+0x628>
    14a6:	8e 2d       	mov	r24, r14
    14a8:	90 e0       	ldi	r25, 0x00	; 0
			{
				//LCD_WriteData(number[j]);
				holder = changetoInteger(number[j]);
    14aa:	9c 01       	movw	r18, r24
    14ac:	22 5c       	subi	r18, 0xC2	; 194
    14ae:	3d 4f       	sbci	r19, 0xFD	; 253
    14b0:	79 01       	movw	r14, r18
    14b2:	f7 01       	movw	r30, r14
    14b4:	81 91       	ld	r24, Z+
				num2 = holder*pow(10, holder2) + num2;
    14b6:	7f 01       	movw	r14, r30
    14b8:	0e 94 f0 01 	call	0x3e0	; 0x3e0 <changetoInteger>
    14bc:	d8 2f       	mov	r29, r24
    14be:	c0 91 47 02 	lds	r28, 0x0247	; 0x800247 <holder2.2137>
    14c2:	6c 2f       	mov	r22, r28
    14c4:	70 e0       	ldi	r23, 0x00	; 0
    14c6:	80 e0       	ldi	r24, 0x00	; 0
    14c8:	90 e0       	ldi	r25, 0x00	; 0
    14ca:	a2 d2       	rcall	.+1348   	; 0x1a10 <__floatunsisf>
    14cc:	9b 01       	movw	r18, r22
    14ce:	ac 01       	movw	r20, r24
    14d0:	60 e0       	ldi	r22, 0x00	; 0
    14d2:	70 e0       	ldi	r23, 0x00	; 0
    14d4:	80 e2       	ldi	r24, 0x20	; 32
    14d6:	91 e4       	ldi	r25, 0x41	; 65
    14d8:	8c d3       	rcall	.+1816   	; 0x1bf2 <pow>
    14da:	4b 01       	movw	r8, r22
    14dc:	5c 01       	movw	r10, r24
    14de:	6d 2f       	mov	r22, r29
    14e0:	70 e0       	ldi	r23, 0x00	; 0
    14e2:	80 e0       	ldi	r24, 0x00	; 0
    14e4:	90 e0       	ldi	r25, 0x00	; 0
    14e6:	96 d2       	rcall	.+1324   	; 0x1a14 <__floatsisf>
    14e8:	a5 01       	movw	r20, r10
    14ea:	94 01       	movw	r18, r8
    14ec:	1f d3       	rcall	.+1598   	; 0x1b2c <__mulsf3>
    14ee:	4b 01       	movw	r8, r22
    14f0:	5c 01       	movw	r10, r24
    14f2:	60 91 44 02 	lds	r22, 0x0244	; 0x800244 <num2.2140>
    14f6:	70 e0       	ldi	r23, 0x00	; 0
    14f8:	80 e0       	ldi	r24, 0x00	; 0
    14fa:	90 e0       	ldi	r25, 0x00	; 0
    14fc:	8b d2       	rcall	.+1302   	; 0x1a14 <__floatsisf>
    14fe:	9b 01       	movw	r18, r22
    1500:	ac 01       	movw	r20, r24
    1502:	c5 01       	movw	r24, r10
    1504:	b4 01       	movw	r22, r8
    1506:	87 d1       	rcall	.+782    	; 0x1816 <__addsf3>
    1508:	57 d2       	rcall	.+1198   	; 0x19b8 <__fixunssfsi>
    150a:	60 93 44 02 	sts	0x0244, r22	; 0x800244 <num2.2140>
    150e:	c1 50       	subi	r28, 0x01	; 1
				holder2--;
    1510:	c0 93 47 02 	sts	0x0247, r28	; 0x800247 <holder2.2137>
    1514:	0f 5f       	subi	r16, 0xFF	; 255
				num1 = holder*pow(10, holder2) + num1;
				holder2--;
			}
			//LCD_WriteData('.');
			holder2 = 1;
			for(int j = place+1; j < count-1; j++)
    1516:	1f 4f       	sbci	r17, 0xFF	; 255
    1518:	0c 15       	cp	r16, r12
    151a:	1d 05       	cpc	r17, r13
    151c:	54 f2       	brlt	.-108    	; 0x14b2 <setting+0x5bc>
    151e:	60 91 44 02 	lds	r22, 0x0244	; 0x800244 <num2.2140>
				holder = changetoInteger(number[j]);
				num2 = holder*pow(10, holder2) + num2;
				holder2--;
			}
			
			holderMoney = (float)num1 + ((float)num2/100);
    1522:	70 e0       	ldi	r23, 0x00	; 0
    1524:	80 e0       	ldi	r24, 0x00	; 0
    1526:	90 e0       	ldi	r25, 0x00	; 0
    1528:	73 d2       	rcall	.+1254   	; 0x1a10 <__floatunsisf>
    152a:	20 e0       	ldi	r18, 0x00	; 0
    152c:	30 e0       	ldi	r19, 0x00	; 0
    152e:	48 ec       	ldi	r20, 0xC8	; 200
    1530:	52 e4       	ldi	r21, 0x42	; 66
    1532:	d5 d1       	rcall	.+938    	; 0x18de <__divsf3>
    1534:	6b 01       	movw	r12, r22
    1536:	7c 01       	movw	r14, r24
    1538:	60 91 45 02 	lds	r22, 0x0245	; 0x800245 <num1.2139>
    153c:	70 e0       	ldi	r23, 0x00	; 0
    153e:	80 e0       	ldi	r24, 0x00	; 0
    1540:	90 e0       	ldi	r25, 0x00	; 0
    1542:	66 d2       	rcall	.+1228   	; 0x1a10 <__floatunsisf>
    1544:	9b 01       	movw	r18, r22
    1546:	ac 01       	movw	r20, r24
    1548:	c7 01       	movw	r24, r14
    154a:	b6 01       	movw	r22, r12
    154c:	64 d1       	rcall	.+712    	; 0x1816 <__addsf3>
    154e:	20 91 46 02 	lds	r18, 0x0246	; 0x800246 <whichAddr.2135>
    1552:	21 30       	cpi	r18, 0x01	; 1
    1554:	41 f4       	brne	.+16     	; 0x1566 <setting+0x670>
    1556:	ab 01       	movw	r20, r22
			if(whichAddr == 1)
    1558:	bc 01       	movw	r22, r24
    155a:	81 e0       	ldi	r24, 0x01	; 1
    155c:	90 e0       	ldi	r25, 0x00	; 0
    155e:	d2 d4       	rcall	.+2468   	; 0x1f04 <eeprom_write_dword>
			{
				eeprom_write_float((float *)1, holderMoney);
    1560:	c7 e0       	ldi	r28, 0x07	; 7
    1562:	d0 e0       	ldi	r29, 0x00	; 0
    1564:	26 c0       	rjmp	.+76     	; 0x15b2 <setting+0x6bc>
    1566:	22 30       	cpi	r18, 0x02	; 2
    1568:	59 f4       	brne	.+22     	; 0x1580 <setting+0x68a>
    156a:	ab 01       	movw	r20, r22
    156c:	bc 01       	movw	r22, r24
    156e:	8a e0       	ldi	r24, 0x0A	; 10
    1570:	90 e0       	ldi	r25, 0x00	; 0
			}	
			else if(whichAddr == 2)
    1572:	c8 d4       	rcall	.+2448   	; 0x1f04 <eeprom_write_dword>
    1574:	c7 e0       	ldi	r28, 0x07	; 7
			{
				eeprom_write_float((float *)10, holderMoney);
    1576:	d0 e0       	ldi	r29, 0x00	; 0
    1578:	1c c0       	rjmp	.+56     	; 0x15b2 <setting+0x6bc>
    157a:	c1 e0       	ldi	r28, 0x01	; 1
    157c:	d0 e0       	ldi	r29, 0x00	; 0
    157e:	19 c0       	rjmp	.+50     	; 0x15b2 <setting+0x6bc>
    1580:	c7 e0       	ldi	r28, 0x07	; 7
    1582:	d0 e0       	ldi	r29, 0x00	; 0
    1584:	16 c0       	rjmp	.+44     	; 0x15b2 <setting+0x6bc>
    1586:	c0 e0       	ldi	r28, 0x00	; 0
	
	switch(state)
	{
		case startS:
		{
			state = pauseS;
    1588:	d0 e0       	ldi	r29, 0x00	; 0
    158a:	13 c0       	rjmp	.+38     	; 0x15b2 <setting+0x6bc>
    158c:	c2 e0       	ldi	r28, 0x02	; 2
    158e:	d0 e0       	ldi	r29, 0x00	; 0
    1590:	10 c0       	rjmp	.+32     	; 0x15b2 <setting+0x6bc>
    1592:	0e 94 45 02 	call	0x48a	; 0x48a <GetKeypadKey>
			}
			break;
		}
		default:
		{
			state = startS;
    1596:	80 93 71 02 	sts	0x0271, r24	; 0x800271 <key>
		case done:
		{
			key = GetKeypadKey();
			if(key == 'A')
			{
				state = opt;
    159a:	81 11       	cpse	r24, r1
    159c:	d5 ce       	rjmp	.-598    	; 0x1348 <setting+0x452>
    159e:	c3 e0       	ldi	r28, 0x03	; 3
		{
			break;
		}
		case codeSet:
		{
			key = GetKeypadKey();
    15a0:	d0 e0       	ldi	r29, 0x00	; 0
    15a2:	07 c0       	rjmp	.+14     	; 0x15b2 <setting+0x6bc>
    15a4:	0e 94 45 02 	call	0x48a	; 0x48a <GetKeypadKey>
			if(key !=  '\0')
    15a8:	80 93 71 02 	sts	0x0271, r24	; 0x800271 <key>
    15ac:	81 11       	cpse	r24, r1
    15ae:	fc ce       	rjmp	.-520    	; 0x13a8 <setting+0x4b2>
		default:
		{
			break;
		}
	}
	return state;
    15b0:	13 cf       	rjmp	.-474    	; 0x13d8 <setting+0x4e2>
		{
			break;
		}
		case priceSet:
		{
			key = GetKeypadKey();
    15b2:	ce 01       	movw	r24, r28
    15b4:	df 91       	pop	r29
    15b6:	cf 91       	pop	r28
    15b8:	1f 91       	pop	r17
			if(key !=  '\0' && key != 'A' && key != 'B' && key!= 'C' && key != 'D')
    15ba:	0f 91       	pop	r16
    15bc:	ff 90       	pop	r15
    15be:	ef 90       	pop	r14
		{
			break;
		}
	}
	return state;
}
    15c0:	df 90       	pop	r13
    15c2:	cf 90       	pop	r12
    15c4:	bf 90       	pop	r11
    15c6:	af 90       	pop	r10
    15c8:	9f 90       	pop	r9
    15ca:	8f 90       	pop	r8
    15cc:	7f 90       	pop	r7
    15ce:	6f 90       	pop	r6
    15d0:	5f 90       	pop	r5
    15d2:	4f 90       	pop	r4
    15d4:	08 95       	ret

000015d6 <keypad>:
    15d6:	81 30       	cpi	r24, 0x01	; 1
    15d8:	91 05       	cpc	r25, r1
    15da:	69 f0       	breq	.+26     	; 0x15f6 <keypad+0x20>
    15dc:	1c f4       	brge	.+6      	; 0x15e4 <keypad+0xe>
    15de:	89 2b       	or	r24, r25
    15e0:	39 f0       	breq	.+14     	; 0x15f0 <keypad+0x1a>
    15e2:	38 c0       	rjmp	.+112    	; 0x1654 <keypad+0x7e>

unsigned char count, x, y;
int keypad(int state)
{
	switch(state)
    15e4:	82 30       	cpi	r24, 0x02	; 2
    15e6:	91 05       	cpc	r25, r1
    15e8:	69 f0       	breq	.+26     	; 0x1604 <keypad+0x2e>
    15ea:	03 97       	sbiw	r24, 0x03	; 3
    15ec:	91 f0       	breq	.+36     	; 0x1612 <keypad+0x3c>
    15ee:	32 c0       	rjmp	.+100    	; 0x1654 <keypad+0x7e>
	{
		case startK:
		{
			count = 0;
    15f0:	10 92 72 02 	sts	0x0272, r1	; 0x800272 <count>
    15f4:	17 c0       	rjmp	.+46     	; 0x1624 <keypad+0x4e>
			state = wait;
			break;
		}
		case wait:
		{
			x = GetKeypadKey();
    15f6:	0e 94 45 02 	call	0x48a	; 0x48a <GetKeypadKey>
    15fa:	80 93 6e 02 	sts	0x026E, r24	; 0x80026e <x>
			if(x != '\0')
    15fe:	81 11       	cpse	r24, r1
    1600:	34 c0       	rjmp	.+104    	; 0x166a <keypad+0x94>
    1602:	2e c0       	rjmp	.+92     	; 0x1660 <keypad+0x8a>
			}
			break;
		}
		case press:
		{
			y = GetKeypadKey();
    1604:	0e 94 45 02 	call	0x48a	; 0x48a <GetKeypadKey>
    1608:	80 93 70 02 	sts	0x0270, r24	; 0x800270 <y>
			if(y == '\0')
    160c:	88 23       	and	r24, r24
    160e:	91 f1       	breq	.+100    	; 0x1674 <keypad+0x9e>
    1610:	36 c0       	rjmp	.+108    	; 0x167e <keypad+0xa8>
			}
			break;
		}
		case unpress:
		{
			key2 = x;
    1612:	80 91 6e 02 	lds	r24, 0x026E	; 0x80026e <x>
    1616:	80 93 73 02 	sts	0x0273, r24	; 0x800273 <key2>
			if(count == 9)
    161a:	80 91 72 02 	lds	r24, 0x0272	; 0x800272 <count>
    161e:	89 30       	cpi	r24, 0x09	; 9
    1620:	89 f4       	brne	.+34     	; 0x1644 <keypad+0x6e>
    1622:	1b c0       	rjmp	.+54     	; 0x165a <keypad+0x84>
		{
			break;
		}
		case wait:
		{
			count++;
    1624:	80 91 72 02 	lds	r24, 0x0272	; 0x800272 <count>
    1628:	8f 5f       	subi	r24, 0xFF	; 255
    162a:	80 93 72 02 	sts	0x0272, r24	; 0x800272 <count>
			break;
    162e:	81 e0       	ldi	r24, 0x01	; 1
    1630:	90 e0       	ldi	r25, 0x00	; 0
    1632:	08 95       	ret
		}
		case press:
		{
			count++;
    1634:	80 91 72 02 	lds	r24, 0x0272	; 0x800272 <count>
    1638:	8f 5f       	subi	r24, 0xFF	; 255
    163a:	80 93 72 02 	sts	0x0272, r24	; 0x800272 <count>
			break;
    163e:	82 e0       	ldi	r24, 0x02	; 2
    1640:	90 e0       	ldi	r25, 0x00	; 0
    1642:	08 95       	ret
		}
		case unpress:
		{
			count++;
    1644:	80 91 72 02 	lds	r24, 0x0272	; 0x800272 <count>
    1648:	8f 5f       	subi	r24, 0xFF	; 255
    164a:	80 93 72 02 	sts	0x0272, r24	; 0x800272 <count>
			break;
    164e:	83 e0       	ldi	r24, 0x03	; 3
    1650:	90 e0       	ldi	r25, 0x00	; 0
    1652:	08 95       	ret
			}
			break;
		}
		default:
		{
			state = startK;
    1654:	80 e0       	ldi	r24, 0x00	; 0
    1656:	90 e0       	ldi	r25, 0x00	; 0
    1658:	08 95       	ret
			break;
		}
		case unpress:
		{
			count++;
			break;
    165a:	80 e0       	ldi	r24, 0x00	; 0
    165c:	90 e0       	ldi	r25, 0x00	; 0
		default:
		{
			break;
		}
	}
	return state;
    165e:	08 95       	ret
			x = GetKeypadKey();
			if(x != '\0')
			{
				state = press;
			}
			if(count == 9)
    1660:	80 91 72 02 	lds	r24, 0x0272	; 0x800272 <count>
    1664:	89 30       	cpi	r24, 0x09	; 9
    1666:	c9 f3       	breq	.-14     	; 0x165a <keypad+0x84>
    1668:	dd cf       	rjmp	.-70     	; 0x1624 <keypad+0x4e>
    166a:	80 91 72 02 	lds	r24, 0x0272	; 0x800272 <count>
    166e:	89 30       	cpi	r24, 0x09	; 9
    1670:	09 f7       	brne	.-62     	; 0x1634 <keypad+0x5e>
    1672:	f3 cf       	rjmp	.-26     	; 0x165a <keypad+0x84>
			y = GetKeypadKey();
			if(y == '\0')
			{
				state = unpress;
			}
			if(count == 9)
    1674:	80 91 72 02 	lds	r24, 0x0272	; 0x800272 <count>
    1678:	89 30       	cpi	r24, 0x09	; 9
    167a:	79 f3       	breq	.-34     	; 0x165a <keypad+0x84>
    167c:	e3 cf       	rjmp	.-58     	; 0x1644 <keypad+0x6e>
    167e:	80 91 72 02 	lds	r24, 0x0272	; 0x800272 <count>
    1682:	89 30       	cpi	r24, 0x09	; 9
    1684:	b9 f6       	brne	.-82     	; 0x1634 <keypad+0x5e>
    1686:	e9 cf       	rjmp	.-46     	; 0x165a <keypad+0x84>

00001688 <main>:
	}
	return state;
}
	
int main()
{
    1688:	cf 93       	push	r28
    168a:	df 93       	push	r29
    168c:	cd b7       	in	r28, 0x3d	; 61
    168e:	de b7       	in	r29, 0x3e	; 62
    1690:	2a 97       	sbiw	r28, 0x0a	; 10
    1692:	0f b6       	in	r0, 0x3f	; 63
    1694:	f8 94       	cli
    1696:	de bf       	out	0x3e, r29	; 62
    1698:	0f be       	out	0x3f, r0	; 63
    169a:	cd bf       	out	0x3d, r28	; 61
	// Set Data Direction Registers
	// Buttons PORTA[0-7], set AVR PORTA to pull down logic
	DDRA = 0xFF; PORTA = 0x00;
    169c:	8f ef       	ldi	r24, 0xFF	; 255
    169e:	81 b9       	out	0x01, r24	; 1
    16a0:	12 b8       	out	0x02, r1	; 2
	DDRD = 0xFF; PORTD = 0x00;
    16a2:	8a b9       	out	0x0a, r24	; 10
    16a4:	1b b8       	out	0x0b, r1	; 11
	DDRC = 0xF0; PORTC = 0x0F;
    16a6:	80 ef       	ldi	r24, 0xF0	; 240
    16a8:	87 b9       	out	0x07, r24	; 7
    16aa:	8f e0       	ldi	r24, 0x0F	; 15
    16ac:	88 b9       	out	0x08, r24	; 8
	unsigned long int SMTick5_period = keypadperiod/100;

	
	//Declare an array of tasks
	static task j,a,b,c,e;
	task *tasks[] = {&j, &a, &b, &c, &e};
    16ae:	8a e0       	ldi	r24, 0x0A	; 10
    16b0:	e4 e0       	ldi	r30, 0x04	; 4
    16b2:	f1 e0       	ldi	r31, 0x01	; 1
    16b4:	de 01       	movw	r26, r28
    16b6:	11 96       	adiw	r26, 0x01	; 1
    16b8:	01 90       	ld	r0, Z+
    16ba:	0d 92       	st	X+, r0
    16bc:	8a 95       	dec	r24
    16be:	e1 f7       	brne	.-8      	; 0x16b8 <main+0x30>
	const unsigned short numTasks = sizeof(tasks)/sizeof(task*);
	
	// Task 1
	j.state = startL;//Task initial state.
    16c0:	e0 e3       	ldi	r30, 0x30	; 48
    16c2:	f2 e0       	ldi	r31, 0x02	; 2
    16c4:	10 82       	st	Z, r1
	j.period = SMTick0_period;//Task Period.
    16c6:	83 e0       	ldi	r24, 0x03	; 3
    16c8:	90 e0       	ldi	r25, 0x00	; 0
    16ca:	a0 e0       	ldi	r26, 0x00	; 0
    16cc:	b0 e0       	ldi	r27, 0x00	; 0
    16ce:	81 83       	std	Z+1, r24	; 0x01
    16d0:	92 83       	std	Z+2, r25	; 0x02
    16d2:	a3 83       	std	Z+3, r26	; 0x03
    16d4:	b4 83       	std	Z+4, r27	; 0x04
	j.elapsedTime = SMTick0_period;//Task current elapsed time.
    16d6:	85 83       	std	Z+5, r24	; 0x05
    16d8:	96 83       	std	Z+6, r25	; 0x06
    16da:	a7 83       	std	Z+7, r26	; 0x07
    16dc:	b0 87       	std	Z+8, r27	; 0x08
	j.TickFct = &Lock;//Function pointer for the tick.
    16de:	83 e9       	ldi	r24, 0x93	; 147
    16e0:	92 e0       	ldi	r25, 0x02	; 2
    16e2:	92 87       	std	Z+10, r25	; 0x0a
    16e4:	81 87       	std	Z+9, r24	; 0x09
	
	a.state = startM;//Task initial state.
    16e6:	e5 e2       	ldi	r30, 0x25	; 37
    16e8:	f2 e0       	ldi	r31, 0x02	; 2
    16ea:	10 82       	st	Z, r1
	a.period = SMTick1_period;//Task Period.
    16ec:	8a e0       	ldi	r24, 0x0A	; 10
    16ee:	90 e0       	ldi	r25, 0x00	; 0
    16f0:	a0 e0       	ldi	r26, 0x00	; 0
    16f2:	b0 e0       	ldi	r27, 0x00	; 0
    16f4:	81 83       	std	Z+1, r24	; 0x01
    16f6:	92 83       	std	Z+2, r25	; 0x02
    16f8:	a3 83       	std	Z+3, r26	; 0x03
    16fa:	b4 83       	std	Z+4, r27	; 0x04
	a.elapsedTime = SMTick1_period;//Task current elapsed time.
    16fc:	85 83       	std	Z+5, r24	; 0x05
    16fe:	96 83       	std	Z+6, r25	; 0x06
    1700:	a7 83       	std	Z+7, r26	; 0x07
    1702:	b0 87       	std	Z+8, r27	; 0x08
	a.TickFct = &Menu;//Function pointer for the tick.
    1704:	86 e9       	ldi	r24, 0x96	; 150
    1706:	91 e0       	ldi	r25, 0x01	; 1
    1708:	92 87       	std	Z+10, r25	; 0x0a
    170a:	81 87       	std	Z+9, r24	; 0x09
	
	// Task 2
	b.state = startT;//Task initial state.
    170c:	ea e1       	ldi	r30, 0x1A	; 26
    170e:	f2 e0       	ldi	r31, 0x02	; 2
    1710:	10 82       	st	Z, r1
	b.period = SMTick2_period;//Task Period.
    1712:	82 e0       	ldi	r24, 0x02	; 2
    1714:	90 e0       	ldi	r25, 0x00	; 0
    1716:	a0 e0       	ldi	r26, 0x00	; 0
    1718:	b0 e0       	ldi	r27, 0x00	; 0
    171a:	81 83       	std	Z+1, r24	; 0x01
    171c:	92 83       	std	Z+2, r25	; 0x02
    171e:	a3 83       	std	Z+3, r26	; 0x03
    1720:	b4 83       	std	Z+4, r27	; 0x04
	b.elapsedTime = SMTick2_period;//Task current elapsed time.
    1722:	85 83       	std	Z+5, r24	; 0x05
    1724:	96 83       	std	Z+6, r25	; 0x06
    1726:	a7 83       	std	Z+7, r26	; 0x07
    1728:	b0 87       	std	Z+8, r27	; 0x08
	b.TickFct = &trans;//Function pointer for the tick.
    172a:	20 e5       	ldi	r18, 0x50	; 80
    172c:	33 e0       	ldi	r19, 0x03	; 3
    172e:	32 87       	std	Z+10, r19	; 0x0a
    1730:	21 87       	std	Z+9, r18	; 0x09
	
	c.state = startS;//Task initial state.
    1732:	ef e0       	ldi	r30, 0x0F	; 15
    1734:	f2 e0       	ldi	r31, 0x02	; 2
    1736:	10 82       	st	Z, r1
	c.period = SMTick3_period;//Task Period.
    1738:	81 83       	std	Z+1, r24	; 0x01
    173a:	92 83       	std	Z+2, r25	; 0x02
    173c:	a3 83       	std	Z+3, r26	; 0x03
    173e:	b4 83       	std	Z+4, r27	; 0x04
	c.elapsedTime = SMTick3_period;//Task current elapsed time.
    1740:	85 83       	std	Z+5, r24	; 0x05
    1742:	96 83       	std	Z+6, r25	; 0x06
    1744:	a7 83       	std	Z+7, r26	; 0x07
    1746:	b0 87       	std	Z+8, r27	; 0x08
	c.TickFct = &setting;//Function pointer for the tick.
    1748:	8b e7       	ldi	r24, 0x7B	; 123
    174a:	97 e0       	ldi	r25, 0x07	; 7
    174c:	92 87       	std	Z+10, r25	; 0x0a
    174e:	81 87       	std	Z+9, r24	; 0x09
	
	e.state = startK;//Task initial state.
    1750:	e4 e0       	ldi	r30, 0x04	; 4
    1752:	f2 e0       	ldi	r31, 0x02	; 2
    1754:	10 82       	st	Z, r1
	e.period = SMTick5_period;//Task Period.
    1756:	81 e0       	ldi	r24, 0x01	; 1
    1758:	90 e0       	ldi	r25, 0x00	; 0
    175a:	a0 e0       	ldi	r26, 0x00	; 0
    175c:	b0 e0       	ldi	r27, 0x00	; 0
    175e:	81 83       	std	Z+1, r24	; 0x01
    1760:	92 83       	std	Z+2, r25	; 0x02
    1762:	a3 83       	std	Z+3, r26	; 0x03
    1764:	b4 83       	std	Z+4, r27	; 0x04
	e.elapsedTime = SMTick5_period;//Task current elapsed time.
    1766:	85 83       	std	Z+5, r24	; 0x05
    1768:	96 83       	std	Z+6, r25	; 0x06
    176a:	a7 83       	std	Z+7, r26	; 0x07
    176c:	b0 87       	std	Z+8, r27	; 0x08
	e.TickFct = &keypad;//Function pointer for the tick.
    176e:	8b ee       	ldi	r24, 0xEB	; 235
    1770:	9a e0       	ldi	r25, 0x0A	; 10
    1772:	92 87       	std	Z+10, r25	; 0x0a
    1774:	81 87       	std	Z+9, r24	; 0x09
	
	// Set the timer and turn it on
	TimerSet(100);
    1776:	64 e6       	ldi	r22, 0x64	; 100
    1778:	70 e0       	ldi	r23, 0x00	; 0
    177a:	80 e0       	ldi	r24, 0x00	; 0
    177c:	90 e0       	ldi	r25, 0x00	; 0
    177e:	0e 94 cd 00 	call	0x19a	; 0x19a <TimerSet>
	TimerOn();
    1782:	0e 94 de 00 	call	0x1bc	; 0x1bc <TimerOn>
	
	LCD_init();
    1786:	0e 94 65 01 	call	0x2ca	; 0x2ca <LCD_init>
	LCD_ClearScreen();
    178a:	0e 94 5a 01 	call	0x2b4	; 0x2b4 <LCD_ClearScreen>
    178e:	7e 01       	movw	r14, r28
    1790:	8b e0       	ldi	r24, 0x0B	; 11
    1792:	e8 0e       	add	r14, r24
    1794:	f1 1c       	adc	r15, r1
    1796:	de 01       	movw	r26, r28
    1798:	11 96       	adiw	r26, 0x01	; 1
    179a:	6d 01       	movw	r12, r26
	unsigned short i; // Scheduler for-loop iterator
	while(1) {
		// Scheduler code
		for ( i = 0; i < numTasks; i++ ) {
			// Task is ready to tick
			if ( tasks[i]->elapsedTime == tasks[i]->period ) {
    179c:	f6 01       	movw	r30, r12
    179e:	01 91       	ld	r16, Z+
    17a0:	11 91       	ld	r17, Z+
    17a2:	6f 01       	movw	r12, r30
    17a4:	d8 01       	movw	r26, r16
    17a6:	15 96       	adiw	r26, 0x05	; 5
    17a8:	4d 91       	ld	r20, X+
    17aa:	5d 91       	ld	r21, X+
    17ac:	6d 91       	ld	r22, X+
    17ae:	7c 91       	ld	r23, X
    17b0:	18 97       	sbiw	r26, 0x08	; 8
    17b2:	11 96       	adiw	r26, 0x01	; 1
    17b4:	8d 91       	ld	r24, X+
    17b6:	9d 91       	ld	r25, X+
    17b8:	0d 90       	ld	r0, X+
    17ba:	bc 91       	ld	r27, X
    17bc:	a0 2d       	mov	r26, r0
    17be:	48 17       	cp	r20, r24
    17c0:	59 07       	cpc	r21, r25
    17c2:	6a 07       	cpc	r22, r26
    17c4:	7b 07       	cpc	r23, r27
    17c6:	81 f4       	brne	.+32     	; 0x17e8 <main+0x160>
				// Setting next state for task
				tasks[i]->state = tasks[i]->TickFct(tasks[i]->state);
    17c8:	f8 01       	movw	r30, r16
    17ca:	80 81       	ld	r24, Z
    17cc:	01 84       	ldd	r0, Z+9	; 0x09
    17ce:	f2 85       	ldd	r31, Z+10	; 0x0a
    17d0:	e0 2d       	mov	r30, r0
    17d2:	08 2e       	mov	r0, r24
    17d4:	00 0c       	add	r0, r0
    17d6:	99 0b       	sbc	r25, r25
    17d8:	09 95       	icall
    17da:	d8 01       	movw	r26, r16
    17dc:	8c 93       	st	X, r24
				// Reset the elapsed time for next tick.
				tasks[i]->elapsedTime = 0;
    17de:	f8 01       	movw	r30, r16
    17e0:	15 82       	std	Z+5, r1	; 0x05
    17e2:	16 82       	std	Z+6, r1	; 0x06
    17e4:	17 82       	std	Z+7, r1	; 0x07
    17e6:	10 86       	std	Z+8, r1	; 0x08
			}
			tasks[i]->elapsedTime += 1;
    17e8:	f8 01       	movw	r30, r16
    17ea:	85 81       	ldd	r24, Z+5	; 0x05
    17ec:	96 81       	ldd	r25, Z+6	; 0x06
    17ee:	a7 81       	ldd	r26, Z+7	; 0x07
    17f0:	b0 85       	ldd	r27, Z+8	; 0x08
    17f2:	01 96       	adiw	r24, 0x01	; 1
    17f4:	a1 1d       	adc	r26, r1
    17f6:	b1 1d       	adc	r27, r1
    17f8:	85 83       	std	Z+5, r24	; 0x05
    17fa:	96 83       	std	Z+6, r25	; 0x06
    17fc:	a7 83       	std	Z+7, r26	; 0x07
    17fe:	b0 87       	std	Z+8, r27	; 0x08
	LCD_ClearScreen();
	
	unsigned short i; // Scheduler for-loop iterator
	while(1) {
		// Scheduler code
		for ( i = 0; i < numTasks; i++ ) {
    1800:	ce 14       	cp	r12, r14
    1802:	df 04       	cpc	r13, r15
    1804:	59 f6       	brne	.-106    	; 0x179c <main+0x114>
				// Reset the elapsed time for next tick.
				tasks[i]->elapsedTime = 0;
			}
			tasks[i]->elapsedTime += 1;
		}
		while(!TimerFlag);
    1806:	80 91 6d 02 	lds	r24, 0x026D	; 0x80026d <TimerFlag>
    180a:	88 23       	and	r24, r24
    180c:	e1 f3       	breq	.-8      	; 0x1806 <main+0x17e>
		TimerFlag = 0;
    180e:	10 92 6d 02 	sts	0x026D, r1	; 0x80026d <TimerFlag>
	}
    1812:	c1 cf       	rjmp	.-126    	; 0x1796 <main+0x10e>

00001814 <__subsf3>:
    1814:	50 58       	subi	r21, 0x80	; 128

00001816 <__addsf3>:
    1816:	bb 27       	eor	r27, r27
    1818:	aa 27       	eor	r26, r26
    181a:	0e d0       	rcall	.+28     	; 0x1838 <__addsf3x>
    181c:	4d c1       	rjmp	.+666    	; 0x1ab8 <__fp_round>
    181e:	3e d1       	rcall	.+636    	; 0x1a9c <__fp_pscA>
    1820:	30 f0       	brcs	.+12     	; 0x182e <__addsf3+0x18>
    1822:	43 d1       	rcall	.+646    	; 0x1aaa <__fp_pscB>
    1824:	20 f0       	brcs	.+8      	; 0x182e <__addsf3+0x18>
    1826:	31 f4       	brne	.+12     	; 0x1834 <__addsf3+0x1e>
    1828:	9f 3f       	cpi	r25, 0xFF	; 255
    182a:	11 f4       	brne	.+4      	; 0x1830 <__addsf3+0x1a>
    182c:	1e f4       	brtc	.+6      	; 0x1834 <__addsf3+0x1e>
    182e:	33 c1       	rjmp	.+614    	; 0x1a96 <__fp_nan>
    1830:	0e f4       	brtc	.+2      	; 0x1834 <__addsf3+0x1e>
    1832:	e0 95       	com	r30
    1834:	e7 fb       	bst	r30, 7
    1836:	29 c1       	rjmp	.+594    	; 0x1a8a <__fp_inf>

00001838 <__addsf3x>:
    1838:	e9 2f       	mov	r30, r25
    183a:	4f d1       	rcall	.+670    	; 0x1ada <__fp_split3>
    183c:	80 f3       	brcs	.-32     	; 0x181e <__addsf3+0x8>
    183e:	ba 17       	cp	r27, r26
    1840:	62 07       	cpc	r22, r18
    1842:	73 07       	cpc	r23, r19
    1844:	84 07       	cpc	r24, r20
    1846:	95 07       	cpc	r25, r21
    1848:	18 f0       	brcs	.+6      	; 0x1850 <__addsf3x+0x18>
    184a:	71 f4       	brne	.+28     	; 0x1868 <__addsf3x+0x30>
    184c:	9e f5       	brtc	.+102    	; 0x18b4 <__addsf3x+0x7c>
    184e:	67 c1       	rjmp	.+718    	; 0x1b1e <__fp_zero>
    1850:	0e f4       	brtc	.+2      	; 0x1854 <__addsf3x+0x1c>
    1852:	e0 95       	com	r30
    1854:	0b 2e       	mov	r0, r27
    1856:	ba 2f       	mov	r27, r26
    1858:	a0 2d       	mov	r26, r0
    185a:	0b 01       	movw	r0, r22
    185c:	b9 01       	movw	r22, r18
    185e:	90 01       	movw	r18, r0
    1860:	0c 01       	movw	r0, r24
    1862:	ca 01       	movw	r24, r20
    1864:	a0 01       	movw	r20, r0
    1866:	11 24       	eor	r1, r1
    1868:	ff 27       	eor	r31, r31
    186a:	59 1b       	sub	r21, r25
    186c:	99 f0       	breq	.+38     	; 0x1894 <__addsf3x+0x5c>
    186e:	59 3f       	cpi	r21, 0xF9	; 249
    1870:	50 f4       	brcc	.+20     	; 0x1886 <__addsf3x+0x4e>
    1872:	50 3e       	cpi	r21, 0xE0	; 224
    1874:	68 f1       	brcs	.+90     	; 0x18d0 <__addsf3x+0x98>
    1876:	1a 16       	cp	r1, r26
    1878:	f0 40       	sbci	r31, 0x00	; 0
    187a:	a2 2f       	mov	r26, r18
    187c:	23 2f       	mov	r18, r19
    187e:	34 2f       	mov	r19, r20
    1880:	44 27       	eor	r20, r20
    1882:	58 5f       	subi	r21, 0xF8	; 248
    1884:	f3 cf       	rjmp	.-26     	; 0x186c <__addsf3x+0x34>
    1886:	46 95       	lsr	r20
    1888:	37 95       	ror	r19
    188a:	27 95       	ror	r18
    188c:	a7 95       	ror	r26
    188e:	f0 40       	sbci	r31, 0x00	; 0
    1890:	53 95       	inc	r21
    1892:	c9 f7       	brne	.-14     	; 0x1886 <__addsf3x+0x4e>
    1894:	7e f4       	brtc	.+30     	; 0x18b4 <__addsf3x+0x7c>
    1896:	1f 16       	cp	r1, r31
    1898:	ba 0b       	sbc	r27, r26
    189a:	62 0b       	sbc	r22, r18
    189c:	73 0b       	sbc	r23, r19
    189e:	84 0b       	sbc	r24, r20
    18a0:	ba f0       	brmi	.+46     	; 0x18d0 <__addsf3x+0x98>
    18a2:	91 50       	subi	r25, 0x01	; 1
    18a4:	a1 f0       	breq	.+40     	; 0x18ce <__addsf3x+0x96>
    18a6:	ff 0f       	add	r31, r31
    18a8:	bb 1f       	adc	r27, r27
    18aa:	66 1f       	adc	r22, r22
    18ac:	77 1f       	adc	r23, r23
    18ae:	88 1f       	adc	r24, r24
    18b0:	c2 f7       	brpl	.-16     	; 0x18a2 <__addsf3x+0x6a>
    18b2:	0e c0       	rjmp	.+28     	; 0x18d0 <__addsf3x+0x98>
    18b4:	ba 0f       	add	r27, r26
    18b6:	62 1f       	adc	r22, r18
    18b8:	73 1f       	adc	r23, r19
    18ba:	84 1f       	adc	r24, r20
    18bc:	48 f4       	brcc	.+18     	; 0x18d0 <__addsf3x+0x98>
    18be:	87 95       	ror	r24
    18c0:	77 95       	ror	r23
    18c2:	67 95       	ror	r22
    18c4:	b7 95       	ror	r27
    18c6:	f7 95       	ror	r31
    18c8:	9e 3f       	cpi	r25, 0xFE	; 254
    18ca:	08 f0       	brcs	.+2      	; 0x18ce <__addsf3x+0x96>
    18cc:	b3 cf       	rjmp	.-154    	; 0x1834 <__addsf3+0x1e>
    18ce:	93 95       	inc	r25
    18d0:	88 0f       	add	r24, r24
    18d2:	08 f0       	brcs	.+2      	; 0x18d6 <__addsf3x+0x9e>
    18d4:	99 27       	eor	r25, r25
    18d6:	ee 0f       	add	r30, r30
    18d8:	97 95       	ror	r25
    18da:	87 95       	ror	r24
    18dc:	08 95       	ret

000018de <__divsf3>:
    18de:	0c d0       	rcall	.+24     	; 0x18f8 <__divsf3x>
    18e0:	eb c0       	rjmp	.+470    	; 0x1ab8 <__fp_round>
    18e2:	e3 d0       	rcall	.+454    	; 0x1aaa <__fp_pscB>
    18e4:	40 f0       	brcs	.+16     	; 0x18f6 <__divsf3+0x18>
    18e6:	da d0       	rcall	.+436    	; 0x1a9c <__fp_pscA>
    18e8:	30 f0       	brcs	.+12     	; 0x18f6 <__divsf3+0x18>
    18ea:	21 f4       	brne	.+8      	; 0x18f4 <__divsf3+0x16>
    18ec:	5f 3f       	cpi	r21, 0xFF	; 255
    18ee:	19 f0       	breq	.+6      	; 0x18f6 <__divsf3+0x18>
    18f0:	cc c0       	rjmp	.+408    	; 0x1a8a <__fp_inf>
    18f2:	51 11       	cpse	r21, r1
    18f4:	15 c1       	rjmp	.+554    	; 0x1b20 <__fp_szero>
    18f6:	cf c0       	rjmp	.+414    	; 0x1a96 <__fp_nan>

000018f8 <__divsf3x>:
    18f8:	f0 d0       	rcall	.+480    	; 0x1ada <__fp_split3>
    18fa:	98 f3       	brcs	.-26     	; 0x18e2 <__divsf3+0x4>

000018fc <__divsf3_pse>:
    18fc:	99 23       	and	r25, r25
    18fe:	c9 f3       	breq	.-14     	; 0x18f2 <__divsf3+0x14>
    1900:	55 23       	and	r21, r21
    1902:	b1 f3       	breq	.-20     	; 0x18f0 <__divsf3+0x12>
    1904:	95 1b       	sub	r25, r21
    1906:	55 0b       	sbc	r21, r21
    1908:	bb 27       	eor	r27, r27
    190a:	aa 27       	eor	r26, r26
    190c:	62 17       	cp	r22, r18
    190e:	73 07       	cpc	r23, r19
    1910:	84 07       	cpc	r24, r20
    1912:	38 f0       	brcs	.+14     	; 0x1922 <__divsf3_pse+0x26>
    1914:	9f 5f       	subi	r25, 0xFF	; 255
    1916:	5f 4f       	sbci	r21, 0xFF	; 255
    1918:	22 0f       	add	r18, r18
    191a:	33 1f       	adc	r19, r19
    191c:	44 1f       	adc	r20, r20
    191e:	aa 1f       	adc	r26, r26
    1920:	a9 f3       	breq	.-22     	; 0x190c <__divsf3_pse+0x10>
    1922:	33 d0       	rcall	.+102    	; 0x198a <__divsf3_pse+0x8e>
    1924:	0e 2e       	mov	r0, r30
    1926:	3a f0       	brmi	.+14     	; 0x1936 <__divsf3_pse+0x3a>
    1928:	e0 e8       	ldi	r30, 0x80	; 128
    192a:	30 d0       	rcall	.+96     	; 0x198c <__divsf3_pse+0x90>
    192c:	91 50       	subi	r25, 0x01	; 1
    192e:	50 40       	sbci	r21, 0x00	; 0
    1930:	e6 95       	lsr	r30
    1932:	00 1c       	adc	r0, r0
    1934:	ca f7       	brpl	.-14     	; 0x1928 <__divsf3_pse+0x2c>
    1936:	29 d0       	rcall	.+82     	; 0x198a <__divsf3_pse+0x8e>
    1938:	fe 2f       	mov	r31, r30
    193a:	27 d0       	rcall	.+78     	; 0x198a <__divsf3_pse+0x8e>
    193c:	66 0f       	add	r22, r22
    193e:	77 1f       	adc	r23, r23
    1940:	88 1f       	adc	r24, r24
    1942:	bb 1f       	adc	r27, r27
    1944:	26 17       	cp	r18, r22
    1946:	37 07       	cpc	r19, r23
    1948:	48 07       	cpc	r20, r24
    194a:	ab 07       	cpc	r26, r27
    194c:	b0 e8       	ldi	r27, 0x80	; 128
    194e:	09 f0       	breq	.+2      	; 0x1952 <__divsf3_pse+0x56>
    1950:	bb 0b       	sbc	r27, r27
    1952:	80 2d       	mov	r24, r0
    1954:	bf 01       	movw	r22, r30
    1956:	ff 27       	eor	r31, r31
    1958:	93 58       	subi	r25, 0x83	; 131
    195a:	5f 4f       	sbci	r21, 0xFF	; 255
    195c:	2a f0       	brmi	.+10     	; 0x1968 <__divsf3_pse+0x6c>
    195e:	9e 3f       	cpi	r25, 0xFE	; 254
    1960:	51 05       	cpc	r21, r1
    1962:	68 f0       	brcs	.+26     	; 0x197e <__divsf3_pse+0x82>
    1964:	92 c0       	rjmp	.+292    	; 0x1a8a <__fp_inf>
    1966:	dc c0       	rjmp	.+440    	; 0x1b20 <__fp_szero>
    1968:	5f 3f       	cpi	r21, 0xFF	; 255
    196a:	ec f3       	brlt	.-6      	; 0x1966 <__divsf3_pse+0x6a>
    196c:	98 3e       	cpi	r25, 0xE8	; 232
    196e:	dc f3       	brlt	.-10     	; 0x1966 <__divsf3_pse+0x6a>
    1970:	86 95       	lsr	r24
    1972:	77 95       	ror	r23
    1974:	67 95       	ror	r22
    1976:	b7 95       	ror	r27
    1978:	f7 95       	ror	r31
    197a:	9f 5f       	subi	r25, 0xFF	; 255
    197c:	c9 f7       	brne	.-14     	; 0x1970 <__divsf3_pse+0x74>
    197e:	88 0f       	add	r24, r24
    1980:	91 1d       	adc	r25, r1
    1982:	96 95       	lsr	r25
    1984:	87 95       	ror	r24
    1986:	97 f9       	bld	r25, 7
    1988:	08 95       	ret
    198a:	e1 e0       	ldi	r30, 0x01	; 1
    198c:	66 0f       	add	r22, r22
    198e:	77 1f       	adc	r23, r23
    1990:	88 1f       	adc	r24, r24
    1992:	bb 1f       	adc	r27, r27
    1994:	62 17       	cp	r22, r18
    1996:	73 07       	cpc	r23, r19
    1998:	84 07       	cpc	r24, r20
    199a:	ba 07       	cpc	r27, r26
    199c:	20 f0       	brcs	.+8      	; 0x19a6 <__divsf3_pse+0xaa>
    199e:	62 1b       	sub	r22, r18
    19a0:	73 0b       	sbc	r23, r19
    19a2:	84 0b       	sbc	r24, r20
    19a4:	ba 0b       	sbc	r27, r26
    19a6:	ee 1f       	adc	r30, r30
    19a8:	88 f7       	brcc	.-30     	; 0x198c <__divsf3_pse+0x90>
    19aa:	e0 95       	com	r30
    19ac:	08 95       	ret

000019ae <__fixsfsi>:
    19ae:	04 d0       	rcall	.+8      	; 0x19b8 <__fixunssfsi>
    19b0:	68 94       	set
    19b2:	b1 11       	cpse	r27, r1
    19b4:	b5 c0       	rjmp	.+362    	; 0x1b20 <__fp_szero>
    19b6:	08 95       	ret

000019b8 <__fixunssfsi>:
    19b8:	98 d0       	rcall	.+304    	; 0x1aea <__fp_splitA>
    19ba:	88 f0       	brcs	.+34     	; 0x19de <__fixunssfsi+0x26>
    19bc:	9f 57       	subi	r25, 0x7F	; 127
    19be:	90 f0       	brcs	.+36     	; 0x19e4 <__fixunssfsi+0x2c>
    19c0:	b9 2f       	mov	r27, r25
    19c2:	99 27       	eor	r25, r25
    19c4:	b7 51       	subi	r27, 0x17	; 23
    19c6:	a0 f0       	brcs	.+40     	; 0x19f0 <__fixunssfsi+0x38>
    19c8:	d1 f0       	breq	.+52     	; 0x19fe <__fixunssfsi+0x46>
    19ca:	66 0f       	add	r22, r22
    19cc:	77 1f       	adc	r23, r23
    19ce:	88 1f       	adc	r24, r24
    19d0:	99 1f       	adc	r25, r25
    19d2:	1a f0       	brmi	.+6      	; 0x19da <__fixunssfsi+0x22>
    19d4:	ba 95       	dec	r27
    19d6:	c9 f7       	brne	.-14     	; 0x19ca <__fixunssfsi+0x12>
    19d8:	12 c0       	rjmp	.+36     	; 0x19fe <__fixunssfsi+0x46>
    19da:	b1 30       	cpi	r27, 0x01	; 1
    19dc:	81 f0       	breq	.+32     	; 0x19fe <__fixunssfsi+0x46>
    19de:	9f d0       	rcall	.+318    	; 0x1b1e <__fp_zero>
    19e0:	b1 e0       	ldi	r27, 0x01	; 1
    19e2:	08 95       	ret
    19e4:	9c c0       	rjmp	.+312    	; 0x1b1e <__fp_zero>
    19e6:	67 2f       	mov	r22, r23
    19e8:	78 2f       	mov	r23, r24
    19ea:	88 27       	eor	r24, r24
    19ec:	b8 5f       	subi	r27, 0xF8	; 248
    19ee:	39 f0       	breq	.+14     	; 0x19fe <__fixunssfsi+0x46>
    19f0:	b9 3f       	cpi	r27, 0xF9	; 249
    19f2:	cc f3       	brlt	.-14     	; 0x19e6 <__fixunssfsi+0x2e>
    19f4:	86 95       	lsr	r24
    19f6:	77 95       	ror	r23
    19f8:	67 95       	ror	r22
    19fa:	b3 95       	inc	r27
    19fc:	d9 f7       	brne	.-10     	; 0x19f4 <__fixunssfsi+0x3c>
    19fe:	3e f4       	brtc	.+14     	; 0x1a0e <__fixunssfsi+0x56>
    1a00:	90 95       	com	r25
    1a02:	80 95       	com	r24
    1a04:	70 95       	com	r23
    1a06:	61 95       	neg	r22
    1a08:	7f 4f       	sbci	r23, 0xFF	; 255
    1a0a:	8f 4f       	sbci	r24, 0xFF	; 255
    1a0c:	9f 4f       	sbci	r25, 0xFF	; 255
    1a0e:	08 95       	ret

00001a10 <__floatunsisf>:
    1a10:	e8 94       	clt
    1a12:	09 c0       	rjmp	.+18     	; 0x1a26 <__floatsisf+0x12>

00001a14 <__floatsisf>:
    1a14:	97 fb       	bst	r25, 7
    1a16:	3e f4       	brtc	.+14     	; 0x1a26 <__floatsisf+0x12>
    1a18:	90 95       	com	r25
    1a1a:	80 95       	com	r24
    1a1c:	70 95       	com	r23
    1a1e:	61 95       	neg	r22
    1a20:	7f 4f       	sbci	r23, 0xFF	; 255
    1a22:	8f 4f       	sbci	r24, 0xFF	; 255
    1a24:	9f 4f       	sbci	r25, 0xFF	; 255
    1a26:	99 23       	and	r25, r25
    1a28:	a9 f0       	breq	.+42     	; 0x1a54 <__floatsisf+0x40>
    1a2a:	f9 2f       	mov	r31, r25
    1a2c:	96 e9       	ldi	r25, 0x96	; 150
    1a2e:	bb 27       	eor	r27, r27
    1a30:	93 95       	inc	r25
    1a32:	f6 95       	lsr	r31
    1a34:	87 95       	ror	r24
    1a36:	77 95       	ror	r23
    1a38:	67 95       	ror	r22
    1a3a:	b7 95       	ror	r27
    1a3c:	f1 11       	cpse	r31, r1
    1a3e:	f8 cf       	rjmp	.-16     	; 0x1a30 <__floatsisf+0x1c>
    1a40:	fa f4       	brpl	.+62     	; 0x1a80 <__floatsisf+0x6c>
    1a42:	bb 0f       	add	r27, r27
    1a44:	11 f4       	brne	.+4      	; 0x1a4a <__floatsisf+0x36>
    1a46:	60 ff       	sbrs	r22, 0
    1a48:	1b c0       	rjmp	.+54     	; 0x1a80 <__floatsisf+0x6c>
    1a4a:	6f 5f       	subi	r22, 0xFF	; 255
    1a4c:	7f 4f       	sbci	r23, 0xFF	; 255
    1a4e:	8f 4f       	sbci	r24, 0xFF	; 255
    1a50:	9f 4f       	sbci	r25, 0xFF	; 255
    1a52:	16 c0       	rjmp	.+44     	; 0x1a80 <__floatsisf+0x6c>
    1a54:	88 23       	and	r24, r24
    1a56:	11 f0       	breq	.+4      	; 0x1a5c <__floatsisf+0x48>
    1a58:	96 e9       	ldi	r25, 0x96	; 150
    1a5a:	11 c0       	rjmp	.+34     	; 0x1a7e <__floatsisf+0x6a>
    1a5c:	77 23       	and	r23, r23
    1a5e:	21 f0       	breq	.+8      	; 0x1a68 <__floatsisf+0x54>
    1a60:	9e e8       	ldi	r25, 0x8E	; 142
    1a62:	87 2f       	mov	r24, r23
    1a64:	76 2f       	mov	r23, r22
    1a66:	05 c0       	rjmp	.+10     	; 0x1a72 <__floatsisf+0x5e>
    1a68:	66 23       	and	r22, r22
    1a6a:	71 f0       	breq	.+28     	; 0x1a88 <__floatsisf+0x74>
    1a6c:	96 e8       	ldi	r25, 0x86	; 134
    1a6e:	86 2f       	mov	r24, r22
    1a70:	70 e0       	ldi	r23, 0x00	; 0
    1a72:	60 e0       	ldi	r22, 0x00	; 0
    1a74:	2a f0       	brmi	.+10     	; 0x1a80 <__floatsisf+0x6c>
    1a76:	9a 95       	dec	r25
    1a78:	66 0f       	add	r22, r22
    1a7a:	77 1f       	adc	r23, r23
    1a7c:	88 1f       	adc	r24, r24
    1a7e:	da f7       	brpl	.-10     	; 0x1a76 <__floatsisf+0x62>
    1a80:	88 0f       	add	r24, r24
    1a82:	96 95       	lsr	r25
    1a84:	87 95       	ror	r24
    1a86:	97 f9       	bld	r25, 7
    1a88:	08 95       	ret

00001a8a <__fp_inf>:
    1a8a:	97 f9       	bld	r25, 7
    1a8c:	9f 67       	ori	r25, 0x7F	; 127
    1a8e:	80 e8       	ldi	r24, 0x80	; 128
    1a90:	70 e0       	ldi	r23, 0x00	; 0
    1a92:	60 e0       	ldi	r22, 0x00	; 0
    1a94:	08 95       	ret

00001a96 <__fp_nan>:
    1a96:	9f ef       	ldi	r25, 0xFF	; 255
    1a98:	80 ec       	ldi	r24, 0xC0	; 192
    1a9a:	08 95       	ret

00001a9c <__fp_pscA>:
    1a9c:	00 24       	eor	r0, r0
    1a9e:	0a 94       	dec	r0
    1aa0:	16 16       	cp	r1, r22
    1aa2:	17 06       	cpc	r1, r23
    1aa4:	18 06       	cpc	r1, r24
    1aa6:	09 06       	cpc	r0, r25
    1aa8:	08 95       	ret

00001aaa <__fp_pscB>:
    1aaa:	00 24       	eor	r0, r0
    1aac:	0a 94       	dec	r0
    1aae:	12 16       	cp	r1, r18
    1ab0:	13 06       	cpc	r1, r19
    1ab2:	14 06       	cpc	r1, r20
    1ab4:	05 06       	cpc	r0, r21
    1ab6:	08 95       	ret

00001ab8 <__fp_round>:
    1ab8:	09 2e       	mov	r0, r25
    1aba:	03 94       	inc	r0
    1abc:	00 0c       	add	r0, r0
    1abe:	11 f4       	brne	.+4      	; 0x1ac4 <__fp_round+0xc>
    1ac0:	88 23       	and	r24, r24
    1ac2:	52 f0       	brmi	.+20     	; 0x1ad8 <__fp_round+0x20>
    1ac4:	bb 0f       	add	r27, r27
    1ac6:	40 f4       	brcc	.+16     	; 0x1ad8 <__fp_round+0x20>
    1ac8:	bf 2b       	or	r27, r31
    1aca:	11 f4       	brne	.+4      	; 0x1ad0 <__fp_round+0x18>
    1acc:	60 ff       	sbrs	r22, 0
    1ace:	04 c0       	rjmp	.+8      	; 0x1ad8 <__fp_round+0x20>
    1ad0:	6f 5f       	subi	r22, 0xFF	; 255
    1ad2:	7f 4f       	sbci	r23, 0xFF	; 255
    1ad4:	8f 4f       	sbci	r24, 0xFF	; 255
    1ad6:	9f 4f       	sbci	r25, 0xFF	; 255
    1ad8:	08 95       	ret

00001ada <__fp_split3>:
    1ada:	57 fd       	sbrc	r21, 7
    1adc:	90 58       	subi	r25, 0x80	; 128
    1ade:	44 0f       	add	r20, r20
    1ae0:	55 1f       	adc	r21, r21
    1ae2:	59 f0       	breq	.+22     	; 0x1afa <__fp_splitA+0x10>
    1ae4:	5f 3f       	cpi	r21, 0xFF	; 255
    1ae6:	71 f0       	breq	.+28     	; 0x1b04 <__fp_splitA+0x1a>
    1ae8:	47 95       	ror	r20

00001aea <__fp_splitA>:
    1aea:	88 0f       	add	r24, r24
    1aec:	97 fb       	bst	r25, 7
    1aee:	99 1f       	adc	r25, r25
    1af0:	61 f0       	breq	.+24     	; 0x1b0a <__fp_splitA+0x20>
    1af2:	9f 3f       	cpi	r25, 0xFF	; 255
    1af4:	79 f0       	breq	.+30     	; 0x1b14 <__fp_splitA+0x2a>
    1af6:	87 95       	ror	r24
    1af8:	08 95       	ret
    1afa:	12 16       	cp	r1, r18
    1afc:	13 06       	cpc	r1, r19
    1afe:	14 06       	cpc	r1, r20
    1b00:	55 1f       	adc	r21, r21
    1b02:	f2 cf       	rjmp	.-28     	; 0x1ae8 <__fp_split3+0xe>
    1b04:	46 95       	lsr	r20
    1b06:	f1 df       	rcall	.-30     	; 0x1aea <__fp_splitA>
    1b08:	08 c0       	rjmp	.+16     	; 0x1b1a <__fp_splitA+0x30>
    1b0a:	16 16       	cp	r1, r22
    1b0c:	17 06       	cpc	r1, r23
    1b0e:	18 06       	cpc	r1, r24
    1b10:	99 1f       	adc	r25, r25
    1b12:	f1 cf       	rjmp	.-30     	; 0x1af6 <__fp_splitA+0xc>
    1b14:	86 95       	lsr	r24
    1b16:	71 05       	cpc	r23, r1
    1b18:	61 05       	cpc	r22, r1
    1b1a:	08 94       	sec
    1b1c:	08 95       	ret

00001b1e <__fp_zero>:
    1b1e:	e8 94       	clt

00001b20 <__fp_szero>:
    1b20:	bb 27       	eor	r27, r27
    1b22:	66 27       	eor	r22, r22
    1b24:	77 27       	eor	r23, r23
    1b26:	cb 01       	movw	r24, r22
    1b28:	97 f9       	bld	r25, 7
    1b2a:	08 95       	ret

00001b2c <__mulsf3>:
    1b2c:	0b d0       	rcall	.+22     	; 0x1b44 <__mulsf3x>
    1b2e:	c4 cf       	rjmp	.-120    	; 0x1ab8 <__fp_round>
    1b30:	b5 df       	rcall	.-150    	; 0x1a9c <__fp_pscA>
    1b32:	28 f0       	brcs	.+10     	; 0x1b3e <__mulsf3+0x12>
    1b34:	ba df       	rcall	.-140    	; 0x1aaa <__fp_pscB>
    1b36:	18 f0       	brcs	.+6      	; 0x1b3e <__mulsf3+0x12>
    1b38:	95 23       	and	r25, r21
    1b3a:	09 f0       	breq	.+2      	; 0x1b3e <__mulsf3+0x12>
    1b3c:	a6 cf       	rjmp	.-180    	; 0x1a8a <__fp_inf>
    1b3e:	ab cf       	rjmp	.-170    	; 0x1a96 <__fp_nan>
    1b40:	11 24       	eor	r1, r1
    1b42:	ee cf       	rjmp	.-36     	; 0x1b20 <__fp_szero>

00001b44 <__mulsf3x>:
    1b44:	ca df       	rcall	.-108    	; 0x1ada <__fp_split3>
    1b46:	a0 f3       	brcs	.-24     	; 0x1b30 <__mulsf3+0x4>

00001b48 <__mulsf3_pse>:
    1b48:	95 9f       	mul	r25, r21
    1b4a:	d1 f3       	breq	.-12     	; 0x1b40 <__mulsf3+0x14>
    1b4c:	95 0f       	add	r25, r21
    1b4e:	50 e0       	ldi	r21, 0x00	; 0
    1b50:	55 1f       	adc	r21, r21
    1b52:	62 9f       	mul	r22, r18
    1b54:	f0 01       	movw	r30, r0
    1b56:	72 9f       	mul	r23, r18
    1b58:	bb 27       	eor	r27, r27
    1b5a:	f0 0d       	add	r31, r0
    1b5c:	b1 1d       	adc	r27, r1
    1b5e:	63 9f       	mul	r22, r19
    1b60:	aa 27       	eor	r26, r26
    1b62:	f0 0d       	add	r31, r0
    1b64:	b1 1d       	adc	r27, r1
    1b66:	aa 1f       	adc	r26, r26
    1b68:	64 9f       	mul	r22, r20
    1b6a:	66 27       	eor	r22, r22
    1b6c:	b0 0d       	add	r27, r0
    1b6e:	a1 1d       	adc	r26, r1
    1b70:	66 1f       	adc	r22, r22
    1b72:	82 9f       	mul	r24, r18
    1b74:	22 27       	eor	r18, r18
    1b76:	b0 0d       	add	r27, r0
    1b78:	a1 1d       	adc	r26, r1
    1b7a:	62 1f       	adc	r22, r18
    1b7c:	73 9f       	mul	r23, r19
    1b7e:	b0 0d       	add	r27, r0
    1b80:	a1 1d       	adc	r26, r1
    1b82:	62 1f       	adc	r22, r18
    1b84:	83 9f       	mul	r24, r19
    1b86:	a0 0d       	add	r26, r0
    1b88:	61 1d       	adc	r22, r1
    1b8a:	22 1f       	adc	r18, r18
    1b8c:	74 9f       	mul	r23, r20
    1b8e:	33 27       	eor	r19, r19
    1b90:	a0 0d       	add	r26, r0
    1b92:	61 1d       	adc	r22, r1
    1b94:	23 1f       	adc	r18, r19
    1b96:	84 9f       	mul	r24, r20
    1b98:	60 0d       	add	r22, r0
    1b9a:	21 1d       	adc	r18, r1
    1b9c:	82 2f       	mov	r24, r18
    1b9e:	76 2f       	mov	r23, r22
    1ba0:	6a 2f       	mov	r22, r26
    1ba2:	11 24       	eor	r1, r1
    1ba4:	9f 57       	subi	r25, 0x7F	; 127
    1ba6:	50 40       	sbci	r21, 0x00	; 0
    1ba8:	8a f0       	brmi	.+34     	; 0x1bcc <__mulsf3_pse+0x84>
    1baa:	e1 f0       	breq	.+56     	; 0x1be4 <__mulsf3_pse+0x9c>
    1bac:	88 23       	and	r24, r24
    1bae:	4a f0       	brmi	.+18     	; 0x1bc2 <__mulsf3_pse+0x7a>
    1bb0:	ee 0f       	add	r30, r30
    1bb2:	ff 1f       	adc	r31, r31
    1bb4:	bb 1f       	adc	r27, r27
    1bb6:	66 1f       	adc	r22, r22
    1bb8:	77 1f       	adc	r23, r23
    1bba:	88 1f       	adc	r24, r24
    1bbc:	91 50       	subi	r25, 0x01	; 1
    1bbe:	50 40       	sbci	r21, 0x00	; 0
    1bc0:	a9 f7       	brne	.-22     	; 0x1bac <__mulsf3_pse+0x64>
    1bc2:	9e 3f       	cpi	r25, 0xFE	; 254
    1bc4:	51 05       	cpc	r21, r1
    1bc6:	70 f0       	brcs	.+28     	; 0x1be4 <__mulsf3_pse+0x9c>
    1bc8:	60 cf       	rjmp	.-320    	; 0x1a8a <__fp_inf>
    1bca:	aa cf       	rjmp	.-172    	; 0x1b20 <__fp_szero>
    1bcc:	5f 3f       	cpi	r21, 0xFF	; 255
    1bce:	ec f3       	brlt	.-6      	; 0x1bca <__mulsf3_pse+0x82>
    1bd0:	98 3e       	cpi	r25, 0xE8	; 232
    1bd2:	dc f3       	brlt	.-10     	; 0x1bca <__mulsf3_pse+0x82>
    1bd4:	86 95       	lsr	r24
    1bd6:	77 95       	ror	r23
    1bd8:	67 95       	ror	r22
    1bda:	b7 95       	ror	r27
    1bdc:	f7 95       	ror	r31
    1bde:	e7 95       	ror	r30
    1be0:	9f 5f       	subi	r25, 0xFF	; 255
    1be2:	c1 f7       	brne	.-16     	; 0x1bd4 <__mulsf3_pse+0x8c>
    1be4:	fe 2b       	or	r31, r30
    1be6:	88 0f       	add	r24, r24
    1be8:	91 1d       	adc	r25, r1
    1bea:	96 95       	lsr	r25
    1bec:	87 95       	ror	r24
    1bee:	97 f9       	bld	r25, 7
    1bf0:	08 95       	ret

00001bf2 <pow>:
    1bf2:	fa 01       	movw	r30, r20
    1bf4:	ee 0f       	add	r30, r30
    1bf6:	ff 1f       	adc	r31, r31
    1bf8:	30 96       	adiw	r30, 0x00	; 0
    1bfa:	21 05       	cpc	r18, r1
    1bfc:	31 05       	cpc	r19, r1
    1bfe:	99 f1       	breq	.+102    	; 0x1c66 <pow+0x74>
    1c00:	61 15       	cp	r22, r1
    1c02:	71 05       	cpc	r23, r1
    1c04:	61 f4       	brne	.+24     	; 0x1c1e <pow+0x2c>
    1c06:	80 38       	cpi	r24, 0x80	; 128
    1c08:	bf e3       	ldi	r27, 0x3F	; 63
    1c0a:	9b 07       	cpc	r25, r27
    1c0c:	49 f1       	breq	.+82     	; 0x1c60 <pow+0x6e>
    1c0e:	68 94       	set
    1c10:	90 38       	cpi	r25, 0x80	; 128
    1c12:	81 05       	cpc	r24, r1
    1c14:	61 f0       	breq	.+24     	; 0x1c2e <pow+0x3c>
    1c16:	80 38       	cpi	r24, 0x80	; 128
    1c18:	bf ef       	ldi	r27, 0xFF	; 255
    1c1a:	9b 07       	cpc	r25, r27
    1c1c:	41 f0       	breq	.+16     	; 0x1c2e <pow+0x3c>
    1c1e:	99 23       	and	r25, r25
    1c20:	42 f5       	brpl	.+80     	; 0x1c72 <pow+0x80>
    1c22:	ff 3f       	cpi	r31, 0xFF	; 255
    1c24:	e1 05       	cpc	r30, r1
    1c26:	31 05       	cpc	r19, r1
    1c28:	21 05       	cpc	r18, r1
    1c2a:	11 f1       	breq	.+68     	; 0x1c70 <pow+0x7e>
    1c2c:	e8 94       	clt
    1c2e:	08 94       	sec
    1c30:	e7 95       	ror	r30
    1c32:	d9 01       	movw	r26, r18
    1c34:	aa 23       	and	r26, r26
    1c36:	29 f4       	brne	.+10     	; 0x1c42 <pow+0x50>
    1c38:	ab 2f       	mov	r26, r27
    1c3a:	be 2f       	mov	r27, r30
    1c3c:	f8 5f       	subi	r31, 0xF8	; 248
    1c3e:	d0 f3       	brcs	.-12     	; 0x1c34 <pow+0x42>
    1c40:	10 c0       	rjmp	.+32     	; 0x1c62 <pow+0x70>
    1c42:	ff 5f       	subi	r31, 0xFF	; 255
    1c44:	70 f4       	brcc	.+28     	; 0x1c62 <pow+0x70>
    1c46:	a6 95       	lsr	r26
    1c48:	e0 f7       	brcc	.-8      	; 0x1c42 <pow+0x50>
    1c4a:	f7 39       	cpi	r31, 0x97	; 151
    1c4c:	50 f0       	brcs	.+20     	; 0x1c62 <pow+0x70>
    1c4e:	19 f0       	breq	.+6      	; 0x1c56 <pow+0x64>
    1c50:	ff 3a       	cpi	r31, 0xAF	; 175
    1c52:	38 f4       	brcc	.+14     	; 0x1c62 <pow+0x70>
    1c54:	9f 77       	andi	r25, 0x7F	; 127
    1c56:	9f 93       	push	r25
    1c58:	0c d0       	rcall	.+24     	; 0x1c72 <pow+0x80>
    1c5a:	0f 90       	pop	r0
    1c5c:	07 fc       	sbrc	r0, 7
    1c5e:	90 58       	subi	r25, 0x80	; 128
    1c60:	08 95       	ret
    1c62:	3e f0       	brts	.+14     	; 0x1c72 <pow+0x80>
    1c64:	18 cf       	rjmp	.-464    	; 0x1a96 <__fp_nan>
    1c66:	60 e0       	ldi	r22, 0x00	; 0
    1c68:	70 e0       	ldi	r23, 0x00	; 0
    1c6a:	80 e8       	ldi	r24, 0x80	; 128
    1c6c:	9f e3       	ldi	r25, 0x3F	; 63
    1c6e:	08 95       	ret
    1c70:	4f e7       	ldi	r20, 0x7F	; 127
    1c72:	9f 77       	andi	r25, 0x7F	; 127
    1c74:	5f 93       	push	r21
    1c76:	4f 93       	push	r20
    1c78:	3f 93       	push	r19
    1c7a:	2f 93       	push	r18
    1c7c:	9e d0       	rcall	.+316    	; 0x1dba <log>
    1c7e:	2f 91       	pop	r18
    1c80:	3f 91       	pop	r19
    1c82:	4f 91       	pop	r20
    1c84:	5f 91       	pop	r21
    1c86:	52 df       	rcall	.-348    	; 0x1b2c <__mulsf3>
    1c88:	05 c0       	rjmp	.+10     	; 0x1c94 <exp>
    1c8a:	19 f4       	brne	.+6      	; 0x1c92 <pow+0xa0>
    1c8c:	0e f0       	brts	.+2      	; 0x1c90 <pow+0x9e>
    1c8e:	fd ce       	rjmp	.-518    	; 0x1a8a <__fp_inf>
    1c90:	46 cf       	rjmp	.-372    	; 0x1b1e <__fp_zero>
    1c92:	01 cf       	rjmp	.-510    	; 0x1a96 <__fp_nan>

00001c94 <exp>:
    1c94:	2a df       	rcall	.-428    	; 0x1aea <__fp_splitA>
    1c96:	c8 f3       	brcs	.-14     	; 0x1c8a <pow+0x98>
    1c98:	96 38       	cpi	r25, 0x86	; 134
    1c9a:	c0 f7       	brcc	.-16     	; 0x1c8c <pow+0x9a>
    1c9c:	07 f8       	bld	r0, 7
    1c9e:	0f 92       	push	r0
    1ca0:	e8 94       	clt
    1ca2:	2b e3       	ldi	r18, 0x3B	; 59
    1ca4:	3a ea       	ldi	r19, 0xAA	; 170
    1ca6:	48 eb       	ldi	r20, 0xB8	; 184
    1ca8:	5f e7       	ldi	r21, 0x7F	; 127
    1caa:	4e df       	rcall	.-356    	; 0x1b48 <__mulsf3_pse>
    1cac:	0f 92       	push	r0
    1cae:	0f 92       	push	r0
    1cb0:	0f 92       	push	r0
    1cb2:	4d b7       	in	r20, 0x3d	; 61
    1cb4:	5e b7       	in	r21, 0x3e	; 62
    1cb6:	0f 92       	push	r0
    1cb8:	c0 d0       	rcall	.+384    	; 0x1e3a <modf>
    1cba:	e8 ed       	ldi	r30, 0xD8	; 216
    1cbc:	f0 e0       	ldi	r31, 0x00	; 0
    1cbe:	16 d0       	rcall	.+44     	; 0x1cec <__fp_powser>
    1cc0:	4f 91       	pop	r20
    1cc2:	5f 91       	pop	r21
    1cc4:	ef 91       	pop	r30
    1cc6:	ff 91       	pop	r31
    1cc8:	e5 95       	asr	r30
    1cca:	ee 1f       	adc	r30, r30
    1ccc:	ff 1f       	adc	r31, r31
    1cce:	49 f0       	breq	.+18     	; 0x1ce2 <exp+0x4e>
    1cd0:	fe 57       	subi	r31, 0x7E	; 126
    1cd2:	e0 68       	ori	r30, 0x80	; 128
    1cd4:	44 27       	eor	r20, r20
    1cd6:	ee 0f       	add	r30, r30
    1cd8:	44 1f       	adc	r20, r20
    1cda:	fa 95       	dec	r31
    1cdc:	e1 f7       	brne	.-8      	; 0x1cd6 <exp+0x42>
    1cde:	41 95       	neg	r20
    1ce0:	55 0b       	sbc	r21, r21
    1ce2:	32 d0       	rcall	.+100    	; 0x1d48 <ldexp>
    1ce4:	0f 90       	pop	r0
    1ce6:	07 fe       	sbrs	r0, 7
    1ce8:	26 c0       	rjmp	.+76     	; 0x1d36 <inverse>
    1cea:	08 95       	ret

00001cec <__fp_powser>:
    1cec:	df 93       	push	r29
    1cee:	cf 93       	push	r28
    1cf0:	1f 93       	push	r17
    1cf2:	0f 93       	push	r16
    1cf4:	ff 92       	push	r15
    1cf6:	ef 92       	push	r14
    1cf8:	df 92       	push	r13
    1cfa:	7b 01       	movw	r14, r22
    1cfc:	8c 01       	movw	r16, r24
    1cfe:	68 94       	set
    1d00:	05 c0       	rjmp	.+10     	; 0x1d0c <__fp_powser+0x20>
    1d02:	da 2e       	mov	r13, r26
    1d04:	ef 01       	movw	r28, r30
    1d06:	1e df       	rcall	.-452    	; 0x1b44 <__mulsf3x>
    1d08:	fe 01       	movw	r30, r28
    1d0a:	e8 94       	clt
    1d0c:	a5 91       	lpm	r26, Z+
    1d0e:	25 91       	lpm	r18, Z+
    1d10:	35 91       	lpm	r19, Z+
    1d12:	45 91       	lpm	r20, Z+
    1d14:	55 91       	lpm	r21, Z+
    1d16:	ae f3       	brts	.-22     	; 0x1d02 <__fp_powser+0x16>
    1d18:	ef 01       	movw	r28, r30
    1d1a:	8e dd       	rcall	.-1252   	; 0x1838 <__addsf3x>
    1d1c:	fe 01       	movw	r30, r28
    1d1e:	97 01       	movw	r18, r14
    1d20:	a8 01       	movw	r20, r16
    1d22:	da 94       	dec	r13
    1d24:	79 f7       	brne	.-34     	; 0x1d04 <__fp_powser+0x18>
    1d26:	df 90       	pop	r13
    1d28:	ef 90       	pop	r14
    1d2a:	ff 90       	pop	r15
    1d2c:	0f 91       	pop	r16
    1d2e:	1f 91       	pop	r17
    1d30:	cf 91       	pop	r28
    1d32:	df 91       	pop	r29
    1d34:	08 95       	ret

00001d36 <inverse>:
    1d36:	9b 01       	movw	r18, r22
    1d38:	ac 01       	movw	r20, r24
    1d3a:	60 e0       	ldi	r22, 0x00	; 0
    1d3c:	70 e0       	ldi	r23, 0x00	; 0
    1d3e:	80 e8       	ldi	r24, 0x80	; 128
    1d40:	9f e3       	ldi	r25, 0x3F	; 63
    1d42:	cd cd       	rjmp	.-1126   	; 0x18de <__divsf3>
    1d44:	a2 ce       	rjmp	.-700    	; 0x1a8a <__fp_inf>
    1d46:	ac c0       	rjmp	.+344    	; 0x1ea0 <__fp_mpack>

00001d48 <ldexp>:
    1d48:	d0 de       	rcall	.-608    	; 0x1aea <__fp_splitA>
    1d4a:	e8 f3       	brcs	.-6      	; 0x1d46 <inverse+0x10>
    1d4c:	99 23       	and	r25, r25
    1d4e:	d9 f3       	breq	.-10     	; 0x1d46 <inverse+0x10>
    1d50:	94 0f       	add	r25, r20
    1d52:	51 1d       	adc	r21, r1
    1d54:	bb f3       	brvs	.-18     	; 0x1d44 <inverse+0xe>
    1d56:	91 50       	subi	r25, 0x01	; 1
    1d58:	50 40       	sbci	r21, 0x00	; 0
    1d5a:	94 f0       	brlt	.+36     	; 0x1d80 <ldexp+0x38>
    1d5c:	59 f0       	breq	.+22     	; 0x1d74 <ldexp+0x2c>
    1d5e:	88 23       	and	r24, r24
    1d60:	32 f0       	brmi	.+12     	; 0x1d6e <ldexp+0x26>
    1d62:	66 0f       	add	r22, r22
    1d64:	77 1f       	adc	r23, r23
    1d66:	88 1f       	adc	r24, r24
    1d68:	91 50       	subi	r25, 0x01	; 1
    1d6a:	50 40       	sbci	r21, 0x00	; 0
    1d6c:	c1 f7       	brne	.-16     	; 0x1d5e <ldexp+0x16>
    1d6e:	9e 3f       	cpi	r25, 0xFE	; 254
    1d70:	51 05       	cpc	r21, r1
    1d72:	44 f7       	brge	.-48     	; 0x1d44 <inverse+0xe>
    1d74:	88 0f       	add	r24, r24
    1d76:	91 1d       	adc	r25, r1
    1d78:	96 95       	lsr	r25
    1d7a:	87 95       	ror	r24
    1d7c:	97 f9       	bld	r25, 7
    1d7e:	08 95       	ret
    1d80:	5f 3f       	cpi	r21, 0xFF	; 255
    1d82:	ac f0       	brlt	.+42     	; 0x1dae <ldexp+0x66>
    1d84:	98 3e       	cpi	r25, 0xE8	; 232
    1d86:	9c f0       	brlt	.+38     	; 0x1dae <ldexp+0x66>
    1d88:	bb 27       	eor	r27, r27
    1d8a:	86 95       	lsr	r24
    1d8c:	77 95       	ror	r23
    1d8e:	67 95       	ror	r22
    1d90:	b7 95       	ror	r27
    1d92:	08 f4       	brcc	.+2      	; 0x1d96 <ldexp+0x4e>
    1d94:	b1 60       	ori	r27, 0x01	; 1
    1d96:	93 95       	inc	r25
    1d98:	c1 f7       	brne	.-16     	; 0x1d8a <ldexp+0x42>
    1d9a:	bb 0f       	add	r27, r27
    1d9c:	58 f7       	brcc	.-42     	; 0x1d74 <ldexp+0x2c>
    1d9e:	11 f4       	brne	.+4      	; 0x1da4 <ldexp+0x5c>
    1da0:	60 ff       	sbrs	r22, 0
    1da2:	e8 cf       	rjmp	.-48     	; 0x1d74 <ldexp+0x2c>
    1da4:	6f 5f       	subi	r22, 0xFF	; 255
    1da6:	7f 4f       	sbci	r23, 0xFF	; 255
    1da8:	8f 4f       	sbci	r24, 0xFF	; 255
    1daa:	9f 4f       	sbci	r25, 0xFF	; 255
    1dac:	e3 cf       	rjmp	.-58     	; 0x1d74 <ldexp+0x2c>
    1dae:	b8 ce       	rjmp	.-656    	; 0x1b20 <__fp_szero>
    1db0:	0e f0       	brts	.+2      	; 0x1db4 <ldexp+0x6c>
    1db2:	76 c0       	rjmp	.+236    	; 0x1ea0 <__fp_mpack>
    1db4:	70 ce       	rjmp	.-800    	; 0x1a96 <__fp_nan>
    1db6:	68 94       	set
    1db8:	68 ce       	rjmp	.-816    	; 0x1a8a <__fp_inf>

00001dba <log>:
    1dba:	97 de       	rcall	.-722    	; 0x1aea <__fp_splitA>
    1dbc:	c8 f3       	brcs	.-14     	; 0x1db0 <ldexp+0x68>
    1dbe:	99 23       	and	r25, r25
    1dc0:	d1 f3       	breq	.-12     	; 0x1db6 <ldexp+0x6e>
    1dc2:	c6 f3       	brts	.-16     	; 0x1db4 <ldexp+0x6c>
    1dc4:	df 93       	push	r29
    1dc6:	cf 93       	push	r28
    1dc8:	1f 93       	push	r17
    1dca:	0f 93       	push	r16
    1dcc:	ff 92       	push	r15
    1dce:	c9 2f       	mov	r28, r25
    1dd0:	dd 27       	eor	r29, r29
    1dd2:	88 23       	and	r24, r24
    1dd4:	2a f0       	brmi	.+10     	; 0x1de0 <log+0x26>
    1dd6:	21 97       	sbiw	r28, 0x01	; 1
    1dd8:	66 0f       	add	r22, r22
    1dda:	77 1f       	adc	r23, r23
    1ddc:	88 1f       	adc	r24, r24
    1dde:	da f7       	brpl	.-10     	; 0x1dd6 <log+0x1c>
    1de0:	20 e0       	ldi	r18, 0x00	; 0
    1de2:	30 e0       	ldi	r19, 0x00	; 0
    1de4:	40 e8       	ldi	r20, 0x80	; 128
    1de6:	5f eb       	ldi	r21, 0xBF	; 191
    1de8:	9f e3       	ldi	r25, 0x3F	; 63
    1dea:	88 39       	cpi	r24, 0x98	; 152
    1dec:	20 f0       	brcs	.+8      	; 0x1df6 <log+0x3c>
    1dee:	80 3e       	cpi	r24, 0xE0	; 224
    1df0:	30 f0       	brcs	.+12     	; 0x1dfe <log+0x44>
    1df2:	21 96       	adiw	r28, 0x01	; 1
    1df4:	8f 77       	andi	r24, 0x7F	; 127
    1df6:	0f dd       	rcall	.-1506   	; 0x1816 <__addsf3>
    1df8:	e0 e0       	ldi	r30, 0x00	; 0
    1dfa:	f1 e0       	ldi	r31, 0x01	; 1
    1dfc:	03 c0       	rjmp	.+6      	; 0x1e04 <log+0x4a>
    1dfe:	0b dd       	rcall	.-1514   	; 0x1816 <__addsf3>
    1e00:	ed e2       	ldi	r30, 0x2D	; 45
    1e02:	f1 e0       	ldi	r31, 0x01	; 1
    1e04:	73 df       	rcall	.-282    	; 0x1cec <__fp_powser>
    1e06:	8b 01       	movw	r16, r22
    1e08:	be 01       	movw	r22, r28
    1e0a:	ec 01       	movw	r28, r24
    1e0c:	fb 2e       	mov	r15, r27
    1e0e:	6f 57       	subi	r22, 0x7F	; 127
    1e10:	71 09       	sbc	r23, r1
    1e12:	75 95       	asr	r23
    1e14:	77 1f       	adc	r23, r23
    1e16:	88 0b       	sbc	r24, r24
    1e18:	99 0b       	sbc	r25, r25
    1e1a:	fc dd       	rcall	.-1032   	; 0x1a14 <__floatsisf>
    1e1c:	28 e1       	ldi	r18, 0x18	; 24
    1e1e:	32 e7       	ldi	r19, 0x72	; 114
    1e20:	41 e3       	ldi	r20, 0x31	; 49
    1e22:	5f e3       	ldi	r21, 0x3F	; 63
    1e24:	8f de       	rcall	.-738    	; 0x1b44 <__mulsf3x>
    1e26:	af 2d       	mov	r26, r15
    1e28:	98 01       	movw	r18, r16
    1e2a:	ae 01       	movw	r20, r28
    1e2c:	ff 90       	pop	r15
    1e2e:	0f 91       	pop	r16
    1e30:	1f 91       	pop	r17
    1e32:	cf 91       	pop	r28
    1e34:	df 91       	pop	r29
    1e36:	00 dd       	rcall	.-1536   	; 0x1838 <__addsf3x>
    1e38:	3f ce       	rjmp	.-898    	; 0x1ab8 <__fp_round>

00001e3a <modf>:
    1e3a:	fa 01       	movw	r30, r20
    1e3c:	dc 01       	movw	r26, r24
    1e3e:	aa 0f       	add	r26, r26
    1e40:	bb 1f       	adc	r27, r27
    1e42:	9b 01       	movw	r18, r22
    1e44:	ac 01       	movw	r20, r24
    1e46:	bf 57       	subi	r27, 0x7F	; 127
    1e48:	28 f4       	brcc	.+10     	; 0x1e54 <modf+0x1a>
    1e4a:	22 27       	eor	r18, r18
    1e4c:	33 27       	eor	r19, r19
    1e4e:	44 27       	eor	r20, r20
    1e50:	50 78       	andi	r21, 0x80	; 128
    1e52:	1f c0       	rjmp	.+62     	; 0x1e92 <modf+0x58>
    1e54:	b7 51       	subi	r27, 0x17	; 23
    1e56:	88 f4       	brcc	.+34     	; 0x1e7a <modf+0x40>
    1e58:	ab 2f       	mov	r26, r27
    1e5a:	00 24       	eor	r0, r0
    1e5c:	46 95       	lsr	r20
    1e5e:	37 95       	ror	r19
    1e60:	27 95       	ror	r18
    1e62:	01 1c       	adc	r0, r1
    1e64:	a3 95       	inc	r26
    1e66:	d2 f3       	brmi	.-12     	; 0x1e5c <modf+0x22>
    1e68:	00 20       	and	r0, r0
    1e6a:	69 f0       	breq	.+26     	; 0x1e86 <modf+0x4c>
    1e6c:	22 0f       	add	r18, r18
    1e6e:	33 1f       	adc	r19, r19
    1e70:	44 1f       	adc	r20, r20
    1e72:	b3 95       	inc	r27
    1e74:	da f3       	brmi	.-10     	; 0x1e6c <modf+0x32>
    1e76:	0d d0       	rcall	.+26     	; 0x1e92 <modf+0x58>
    1e78:	cd cc       	rjmp	.-1638   	; 0x1814 <__subsf3>
    1e7a:	61 30       	cpi	r22, 0x01	; 1
    1e7c:	71 05       	cpc	r23, r1
    1e7e:	a0 e8       	ldi	r26, 0x80	; 128
    1e80:	8a 07       	cpc	r24, r26
    1e82:	b9 46       	sbci	r27, 0x69	; 105
    1e84:	30 f4       	brcc	.+12     	; 0x1e92 <modf+0x58>
    1e86:	9b 01       	movw	r18, r22
    1e88:	ac 01       	movw	r20, r24
    1e8a:	66 27       	eor	r22, r22
    1e8c:	77 27       	eor	r23, r23
    1e8e:	88 27       	eor	r24, r24
    1e90:	90 78       	andi	r25, 0x80	; 128
    1e92:	30 96       	adiw	r30, 0x00	; 0
    1e94:	21 f0       	breq	.+8      	; 0x1e9e <modf+0x64>
    1e96:	20 83       	st	Z, r18
    1e98:	31 83       	std	Z+1, r19	; 0x01
    1e9a:	42 83       	std	Z+2, r20	; 0x02
    1e9c:	53 83       	std	Z+3, r21	; 0x03
    1e9e:	08 95       	ret

00001ea0 <__fp_mpack>:
    1ea0:	9f 3f       	cpi	r25, 0xFF	; 255
    1ea2:	31 f0       	breq	.+12     	; 0x1eb0 <__fp_mpack_finite+0xc>

00001ea4 <__fp_mpack_finite>:
    1ea4:	91 50       	subi	r25, 0x01	; 1
    1ea6:	20 f4       	brcc	.+8      	; 0x1eb0 <__fp_mpack_finite+0xc>
    1ea8:	87 95       	ror	r24
    1eaa:	77 95       	ror	r23
    1eac:	67 95       	ror	r22
    1eae:	b7 95       	ror	r27
    1eb0:	88 0f       	add	r24, r24
    1eb2:	91 1d       	adc	r25, r1
    1eb4:	96 95       	lsr	r25
    1eb6:	87 95       	ror	r24
    1eb8:	97 f9       	bld	r25, 7
    1eba:	08 95       	ret

00001ebc <__tablejump2__>:
    1ebc:	ee 0f       	add	r30, r30
    1ebe:	ff 1f       	adc	r31, r31
    1ec0:	00 24       	eor	r0, r0
    1ec2:	00 1c       	adc	r0, r0
    1ec4:	0b be       	out	0x3b, r0	; 59
    1ec6:	07 90       	elpm	r0, Z+
    1ec8:	f6 91       	elpm	r31, Z
    1eca:	e0 2d       	mov	r30, r0
    1ecc:	09 94       	ijmp

00001ece <eeprom_read_byte>:
    1ece:	f9 99       	sbic	0x1f, 1	; 31
    1ed0:	fe cf       	rjmp	.-4      	; 0x1ece <eeprom_read_byte>
    1ed2:	92 bd       	out	0x22, r25	; 34
    1ed4:	81 bd       	out	0x21, r24	; 33
    1ed6:	f8 9a       	sbi	0x1f, 0	; 31
    1ed8:	99 27       	eor	r25, r25
    1eda:	80 b5       	in	r24, 0x20	; 32
    1edc:	08 95       	ret

00001ede <eeprom_read_dword>:
    1ede:	a6 e1       	ldi	r26, 0x16	; 22
    1ee0:	b0 e0       	ldi	r27, 0x00	; 0
    1ee2:	44 e0       	ldi	r20, 0x04	; 4
    1ee4:	50 e0       	ldi	r21, 0x00	; 0
    1ee6:	18 c0       	rjmp	.+48     	; 0x1f18 <eeprom_read_blraw>

00001ee8 <eeprom_write_byte>:
    1ee8:	26 2f       	mov	r18, r22

00001eea <eeprom_write_r18>:
    1eea:	f9 99       	sbic	0x1f, 1	; 31
    1eec:	fe cf       	rjmp	.-4      	; 0x1eea <eeprom_write_r18>
    1eee:	1f ba       	out	0x1f, r1	; 31
    1ef0:	92 bd       	out	0x22, r25	; 34
    1ef2:	81 bd       	out	0x21, r24	; 33
    1ef4:	20 bd       	out	0x20, r18	; 32
    1ef6:	0f b6       	in	r0, 0x3f	; 63
    1ef8:	f8 94       	cli
    1efa:	fa 9a       	sbi	0x1f, 2	; 31
    1efc:	f9 9a       	sbi	0x1f, 1	; 31
    1efe:	0f be       	out	0x3f, r0	; 63
    1f00:	01 96       	adiw	r24, 0x01	; 1
    1f02:	08 95       	ret

00001f04 <eeprom_write_dword>:
    1f04:	24 2f       	mov	r18, r20
    1f06:	f1 df       	rcall	.-30     	; 0x1eea <eeprom_write_r18>
    1f08:	25 2f       	mov	r18, r21
    1f0a:	ef df       	rcall	.-34     	; 0x1eea <eeprom_write_r18>
    1f0c:	00 c0       	rjmp	.+0      	; 0x1f0e <eeprom_write_word>

00001f0e <eeprom_write_word>:
    1f0e:	ec df       	rcall	.-40     	; 0x1ee8 <eeprom_write_byte>
    1f10:	27 2f       	mov	r18, r23
    1f12:	eb cf       	rjmp	.-42     	; 0x1eea <eeprom_write_r18>

00001f14 <eeprom_read_block>:
    1f14:	dc 01       	movw	r26, r24
    1f16:	cb 01       	movw	r24, r22

00001f18 <eeprom_read_blraw>:
    1f18:	fc 01       	movw	r30, r24
    1f1a:	f9 99       	sbic	0x1f, 1	; 31
    1f1c:	fe cf       	rjmp	.-4      	; 0x1f1a <eeprom_read_blraw+0x2>
    1f1e:	06 c0       	rjmp	.+12     	; 0x1f2c <eeprom_read_blraw+0x14>
    1f20:	f2 bd       	out	0x22, r31	; 34
    1f22:	e1 bd       	out	0x21, r30	; 33
    1f24:	f8 9a       	sbi	0x1f, 0	; 31
    1f26:	31 96       	adiw	r30, 0x01	; 1
    1f28:	00 b4       	in	r0, 0x20	; 32
    1f2a:	0d 92       	st	X+, r0
    1f2c:	41 50       	subi	r20, 0x01	; 1
    1f2e:	50 40       	sbci	r21, 0x00	; 0
    1f30:	b8 f7       	brcc	.-18     	; 0x1f20 <eeprom_read_blraw+0x8>
    1f32:	08 95       	ret

00001f34 <_exit>:
    1f34:	f8 94       	cli

00001f36 <__stop_program>:
    1f36:	ff cf       	rjmp	.-2      	; 0x1f36 <__stop_program>
